(dp1
S'output'
p2
S"<type 'exceptions.SyntaxError'> invalid syntax (portal.html, line 28)"
p3
sS'layer'
p4
S'/home/wellington/SPIn/web2py/applications/monitorart/views/default/portal.html'
p5
sS'code'
p6
S'response.write(\'<!DOCTYPE html>\\n<html lang="pt">\\n\\n<head>\\n\\n    <meta charset="utf-8">\\n    <meta http-equiv="X-UA-Compatible" content="IE=edge">\\n    <meta name="viewport" content="width=device-width, initial-scale=1">\\n    <meta name="description" content="">\\n    <meta name="author" content="">\\n\\n    <title>MonitorAR</title>\\n\\n    <!-- Bootstrap Core CSS -->\\n    <link href="\', escape=False)\nresponse.write(URL(\'static\',\'portal/bower_components/bootstrap/dist/css/bootstrap.min.css\'))\nresponse.write(\'" rel="stylesheet">\\n\\n    <!-- MetisMenu CSS -->\\n    <link href="\', escape=False)\nresponse.write(URL(\'static\',\'portal//bower_components/metisMenu/dist/metisMenu.min.css\'))\nresponse.write(\'" rel="stylesheet">\\n\\n    <!-- Timeline CSS -->\\n    <link href="\', escape=False)\nresponse.write(URL(\'static\',\'portal/dist/css/timeline.css\'))\nresponse.write(\'" rel="stylesheet">\\n\\n    <!-- Custom CSS -->\\n    <link href="\', escape=False)\nresponse.write(URL(\'static\',\'portal/dist/css/sb-admin-2.css\'))\nresponse.write(\'" rel="stylesheet">\\n\\n    <!-- Morris Charts CSS -->\\n    <link href="\', escape=False)\nresponse.write(URL(\'static\',\'portal/bower_components/morrisjs/morris.css\'))\nresponse.write(\'" rel="stylesheet">\\n\\n    <!-- Custom Fonts -->\\n    <link href="\', escape=False)\nresponse.write(URL(\'static\',\'portal/bower_components/font-awesome/css/font-awesome.min.css\'))\nresponse.write(\'" rel="stylesheet" type="text/css">\\n\\n    <!-- HTML5 Shim and Respond.js IE8 support of HTML5 elements and media queries -->\\n    <!-- WARNING: Respond.js doesn\\\'t work if you view the page via file:// -->\\n    <!--[if lt IE 9]>\\n        <script src="https://oss.maxcdn.com/libs/html5shiv/3.7.0/html5shiv.js"></script>\\n        <script src="https://oss.maxcdn.com/libs/respond.js/1.4.2/respond.min.js"></script>\\n    <![endif]-->\\n\\n</head>\\n\\n<body>\\n\\n    <div id="wrapper">\\n\\n        <!-- Navigation -->\\n        <nav class="navbar navbar-default navbar-static-top" role="navigation" style="margin-bottom: 0">\\n            <div class="navbar-header">\\n                <button type="button" class="navbar-toggle" data-toggle="collapse" data-target=".navbar-collapse">\\n                    <span class="sr-only">Toggle navigation</span>\\n                    <span class="icon-bar"></span>\\n                    <span class="icon-bar"></span>\\n                    <span class="icon-bar"></span>\\n                </button>\\n                <a class="navbar-brand" href="index.html">MonitorAR  Ola \', escape=False)\nresponse.write(nome)\nresponse.write(\'</a>\\n            </div>\\n            <!-- /.navbar-header -->\\n\\n            <ul class="nav navbar-top-links navbar-right">\\n                <li class="dropdown">\\n                    <a class="dropdown-toggle" data-toggle="dropdown" href="#">\\n                        <i class="fa fa-user fa-fw"></i>  <i class="fa fa-caret-down"></i>\\n                    </a>\\n                    <ul class="dropdown-menu dropdown-user">\\n                        <li><a href="#"><i class="fa fa-user fa-fw"></i> User Profile</a>\\n                        </li>\\n                        <li><a href="#"><i class="fa fa-gear fa-fw"></i> Settings</a>\\n                        </li>\\n                        <li class="divider"></li>\\n                        <li><a href="login.html"><i class="fa fa-sign-out fa-fw"></i> Logout</a>\\n                        </li>\\n                    </ul>\\n                    <!-- /.dropdown-user -->\\n                </li>\\n                <!-- /.dropdown -->\\n            </ul>\\n            <!-- /.navbar-top-links -->\\n\\n            <div class="navbar-default sidebar" role="navigation">\\n                <div class="sidebar-nav navbar-collapse">\\n                    <ul class="nav" id="side-menu">\\n                        \\n                        <li>\\n                            <a href="index.html"><i class="fa fa-dashboard fa-fw"></i> Paca Gorda</a>\\n                        </li>\\n                    \\n                    </ul>\\n                </div>\\n                <!-- /.sidebar-collapse -->\\n            </div>\\n            <!-- /.navbar-static-side -->\\n        </nav>\\n\\n        <div id="page-wrapper">\\n            <div class="row">\\n                <div class="col-lg-12">\\n                \\n                \', escape=False)\nresponse.write(form.custom.begin)\nresponse.write(\'\\n                <div class="row">\\n                    <div class="col-md-4">Inicio: <div>\', escape=False)\nresponse.write(form.custom.widget.date_atual)\nresponse.write(\'</div></div>\\n                    <div class="col-md-4">Fim: <div>\', escape=False)\nresponse.write(form.custom.widget.date_final)\nresponse.write(\'</div></div>\\n                    <div class="col-md-4"> <br><div>\', escape=False)\nresponse.write(form.custom.submit)\nresponse.write(\'</div> </div>\\n                </div>\\n                \', escape=False)\nresponse.write(form.custom.end)\nresponse.write(\'\\n    \\n               \\n                    <h1 class="page-header">Gases</h1>\\n                </div>\\n                <!-- /.col-lg-12 -->\\n            </div>\\n            <!-- /.row -->\\n            <div class="row">\\n                <div class="col-lg-3 col-md-6">\\n                    <div class="panel panel-primary">\\n                        <div class="panel-heading">\\n                            <div class="row">\\n                                <div class="col-xs-3">\\n                                    <i class="fa fa-comments fa-5x"></i>\\n                                </div>\\n                                <div class="col-xs-9 text-right">\\n                                    <div class="huge">26</div>\\n                                    <div>Metano</div>\\n                                </div>\\n                            </div>\\n                        </div>\\n                        <a href="#">\\n                            <div class="panel-footer">\\n                                <span class="pull-left">Ver detalhes</span>\\n                                <span class="pull-right"><i class="fa fa-arrow-circle-right"></i></span>\\n                                <div class="clearfix"></div>\\n                            </div>\\n                        </a>\\n                    </div>\\n                </div>\\n\\n                <div class="col-lg-3 col-md-6">\\n                    <div class="panel panel-green">\\n                        <div class="panel-heading">\\n                            <div class="row">\\n                                <div class="col-xs-3">\\n                                    <i class="fa fa-tasks fa-5x"></i>\\n                                </div>\\n                                <div class="col-xs-9 text-right">\\n                                    <div class="huge">12</div>\\n                                    <div>Mon\\xc3\\xb3xido de Carbono</div>\\n                                </div>\\n                            </div>\\n                        </div>\\n                        <a href="#">\\n                            <div class="panel-footer">\\n                                <span class="pull-left">Ver Detalhes</span>\\n                                <span class="pull-right"><i class="fa fa-arrow-circle-right"></i></span>\\n                                <div class="clearfix"></div>\\n                            </div>\\n                        </a>\\n                    </div>\\n                </div>\\n\\n            </div>\\n            <!-- /.row -->\\n            <div class="row">\\n                <div class="col-lg-8">\\n                    <div class="panel panel-default">\\n                        <div class="panel-heading">\\n                            <i class="fa fa-bar-chart-o fa-fw"></i> Varia\\xc3\\xa7\\xc3\\xa3o da quantidade de poluentes\\n                            \\n                        </div>\\n                        <!-- /.panel-heading -->\\n                        <div class="panel-body">\\n                            <div id="morris-area-chart"></div>\\n                        </div>\\n                        <!-- /.panel-body -->\\n                    </div>\\n                    <!-- /.panel -->\\n                    <div class="panel panel-default">\\n                        <div class="panel-heading">\\n                            <i class="fa fa-bar-chart-o fa-fw"></i> Quantidades de poluentes\\n                        </div>\\n                        <!-- /.panel-heading -->\\n                        <div class="panel-body">\\n                            <div class="row">\\n                                <div class="col-lg-4">\\n                                    <div class="table-responsive">\\n                                        <table class="table table-bordered table-hover table-striped">\\n                                            <thead>\\n                                                <tr>\\n                                                    <th>Data</th>\\n                                                    <th>Quantidade</th>\\n                                                </tr>\\n                                            </thead>\\n                                            <tbody>\\n                                                \\n                                                \', escape=False)\nfor leitura in leituras:\n    response.write(\'\\n                                                    <tr>\\n                                                        <td>\', escape=False)\n    response.write(leitura.)\n    response.write(\'</td>\\n                                                        <td>\', escape=False)\n    response.write(leitura.)\n    response.write(\'</td>\\n                                                    </tr>\\n                                                \', escape=False)\n    pass\nresponse.write(\'\\n                                            </tbody>\\n                                        </table>\\n                                    </div>\\n                                    <!-- /.table-responsive -->\\n                                </div>\\n                                <!-- /.col-lg-4 (nested) -->\\n                                <div class="col-lg-8">\\n                                    <div id="morris-bar-chart"></div>\\n                                </div>\\n                                <!-- /.col-lg-8 (nested) -->\\n                            </div>\\n                            <!-- /.row -->\\n                        </div>\\n                        <!-- /.panel-body -->\\n                    </div>\\n                    <!-- /.panel -->\\n                    <div class="panel panel-default">\\n                        <div class="panel-heading">\\n                            <i class="fa fa-clock-o fa-fw"></i> Curiosidades\\n                        </div>\\n                        <!-- /.panel-heading -->\\n                        <div class="panel-body">\\n                            <ul class="timeline">\\n                                <li>\\n                                    <div class="timeline-badge"><i class="fa fa-check"></i>\\n                                    </div>\\n                                    <div class="timeline-panel">\\n                                        <div class="timeline-heading">\\n                                            <h4 class="timeline-title">Lorem ipsum dolor</h4>\\n                                            \\n                                        </div>\\n                                        <div class="timeline-body">\\n                                            <p>Lorem ipsum dolor sit amet, consectetur adipisicing elit. Libero laboriosam dolor perspiciatis omnis exercitationem. Beatae, officia pariatur? Est cum veniam excepturi. Maiores praesentium, porro voluptas suscipit facere rem dicta, debitis.</p>\\n                                        </div>\\n                                    </div>\\n                                </li>\\n                                <li class="timeline-inverted">\\n                                    <div class="timeline-badge warning"><i class="fa fa-credit-card"></i>\\n                                    </div>\\n                                    <div class="timeline-panel">\\n                                        <div class="timeline-heading">\\n                                            <h4 class="timeline-title">Lorem ipsum dolor</h4>\\n                                        </div>\\n                                        <div class="timeline-body">\\n                                            <p>Lorem ipsum dolor sit amet, consectetur adipisicing elit. Autem dolorem quibusdam, tenetur commodi provident cumque magni voluptatem libero, quis rerum. Fugiat esse debitis optio, tempore. Animi officiis alias, officia repellendus.</p>\\n                                            <p>Lorem ipsum dolor sit amet, consectetur adipisicing elit. Laudantium maiores odit qui est tempora eos, nostrum provident explicabo dignissimos debitis vel! Adipisci eius voluptates, ad aut recusandae minus eaque facere.</p>\\n                                        </div>\\n                                    </div>\\n                                </li>\\n                               \\n                            </ul>\\n                        </div>\\n                        <!-- /.panel-body -->\\n                    </div>\\n                    <!-- /.panel -->\\n                </div>\\n                <!-- /.col-lg-8 -->\\n                <div class="col-lg-4">\\n                    <div class="panel panel-default">\\n                        <div class="panel-heading">\\n                            <i class="fa fa-bell fa-fw"></i> Painel de Notifica\\xc3\\xa7\\xc3\\xb5es\\n                        </div>\\n                        <!-- /.panel-heading -->\\n                        <div class="panel-body">\\n                            <div class="list-group">\\n                                <a href="#" class="list-group-item">\\n                                    <i class="fa fa-comment fa-fw"></i> Coment\\xc3\\xa1rios\\n                                    \\n                                    </span>\\n                                </a>\\n                                <a href="#" class="list-group-item">\\n                                    <i class="fa fa-twitter fa-fw"></i> Seguidores\\n                                    \\n                                    </span>\\n                                </a>\\n                            </div>\\n                            <!-- /.list-group -->\\n                            \\n                        </div>\\n                        <!-- /.panel-body -->\\n                    </div>\\n                    <!-- /.panel -->\\n                    <div class="panel panel-default">\\n                        <div class="panel-heading">\\n                            <i class="fa fa-bar-chart-o fa-fw"></i> Gr\\xc3\\xa1fico de porcentagem\\n                        </div>\\n                        <div class="panel-body">\\n                            <div id="morris-donut-chart"></div>\\n                        </div>\\n                        <!-- /.panel-body -->\\n                    </div>\\n                    <!-- /.panel -->\\n                    \\n    <!-- /#wrapper -->\\n\\n    <!-- jQuery -->\\n    <script src="\', escape=False)\nresponse.write(URL(\'static\',\'portal/bower_components/jquery/dist/jquery.min.js\'))\nresponse.write(\'"></script>\\n\\n    <!-- Bootstrap Core JavaScript -->\\n    <script src="\', escape=False)\nresponse.write(URL(\'static\',\'portal/bower_components/bootstrap/dist/js/bootstrap.min.js\'))\nresponse.write(\'"></script>\\n\\n    <!-- Metis Menu Plugin JavaScript -->\\n    <script src="\', escape=False)\nresponse.write(URL(\'static\',\'portal/bower_components/metisMenu/dist/metisMenu.min.js\'))\nresponse.write(\'"></script>\\n\\n    <!-- Morris Charts JavaScript -->\\n    <script src="\', escape=False)\nresponse.write(URL(\'static\',\'portal/bower_components/raphael/raphael-min.js\'))\nresponse.write(\'"></script>\\n    <script src="\', escape=False)\nresponse.write(URL(\'static\',\'portal/bower_components/morrisjs/morris.min.js\'))\nresponse.write(\'"></script>\\n    <script src="\', escape=False)\nresponse.write(URL(\'static\',\'portal/js/morris-data.js\'))\nresponse.write(\'"></script>\\n\\n    <!-- Custom Theme JavaScript -->\\n    <script src="\', escape=False)\nresponse.write(URL(\'static\',\'portal/dist/js/sb-admin-2.js\'))\nresponse.write(\'"></script>\\n\\n</body>\\n\\n</html>\\n\', escape=False)'
p7
sS'snapshot'
p8
(dp9
S'exception'
p10
(dp11
S'__getslice__'
p12
S"<method-wrapper '__getslice__' of exceptions.SyntaxError object>"
p13
sS'text'
p14
S"'    response.write(leitura.)\\n'"
p15
sS'__str__'
p16
S"<method-wrapper '__str__' of exceptions.SyntaxError object>"
p17
sS'__reduce__'
p18
S'<built-in method __reduce__ of exceptions.SyntaxError object>'
p19
sS'__dict__'
p20
S'{}'
p21
sS'__sizeof__'
p22
S'<built-in method __sizeof__ of exceptions.SyntaxError object>'
p23
sS'__init__'
p24
S"<method-wrapper '__init__' of exceptions.SyntaxError object>"
p25
sS'__setattr__'
p26
S"<method-wrapper '__setattr__' of exceptions.SyntaxError object>"
p27
sS'__reduce_ex__'
p28
S'<built-in method __reduce_ex__ of exceptions.SyntaxError object>'
p29
sS'__new__'
p30
S'<built-in method __new__ of type object>'
p31
sS'__format__'
p32
S'<built-in method __format__ of exceptions.SyntaxError object>'
p33
sS'__class__'
p34
S"<type 'exceptions.SyntaxError'>"
p35
sS'filename'
p36
S"'/home/wellington/SPIn/web2py/applications/monitorart/views/default/portal.html'"
p37
sS'lineno'
p38
S'28'
p39
sS'msg'
p40
S"'invalid syntax'"
p41
sS'__doc__'
p42
S"'Invalid syntax.'"
p43
sS'__getitem__'
p44
S"<method-wrapper '__getitem__' of exceptions.SyntaxError object>"
p45
sS'__setstate__'
p46
S'<built-in method __setstate__ of exceptions.SyntaxError object>'
p47
sS'__getattribute__'
p48
S"<method-wrapper '__getattribute__' of exceptions.SyntaxError object>"
p49
sS'print_file_and_line'
p50
S'None'
p51
sS'args'
p52
S"('invalid syntax', ('/home/wellington/SPIn/web2py/applications/monitorart/views/default/portal.html', 28, 28, '    response.write(leitura.)\\n'))"
p53
sS'__subclasshook__'
p54
S'<built-in method __subclasshook__ of type object>'
p55
sS'offset'
p56
S'28'
p57
sS'__unicode__'
p58
S'<built-in method __unicode__ of exceptions.SyntaxError object>'
p59
sS'__delattr__'
p60
S"<method-wrapper '__delattr__' of exceptions.SyntaxError object>"
p61
sS'__repr__'
p62
S"<method-wrapper '__repr__' of exceptions.SyntaxError object>"
p63
sS'__hash__'
p64
S"<method-wrapper '__hash__' of exceptions.SyntaxError object>"
p65
ssS'evalue'
p66
S'invalid syntax (portal.html, line 28)'
p67
sS'request'
p68
cgluon.html
XML_unpickle
p69
(S's$b\x00\x00<div><table><tr><td style="font-weight:bold;vertical-align:top;">ajax</td><td style="vertical-align:top;">:</td><td><div>False</div></td></tr><tr><td style="font-weight:bold;vertical-align:top;">application</td><td style="vertical-align:top;">:</td><td><div>monitorart</div></td></tr><tr><td style="font-weight:bold;vertical-align:top;">args</td><td style="vertical-align:top;">:</td><td><div><table></table></div></td></tr><tr><td style="font-weight:bold;vertical-align:top;">cid</td><td style="vertical-align:top;">:</td><td><div>None</div></td></tr><tr><td style="font-weight:bold;vertical-align:top;">client</td><td style="vertical-align:top;">:</td><td><div>127.0.0.1</div></td></tr><tr><td style="font-weight:bold;vertical-align:top;">controller</td><td style="vertical-align:top;">:</td><td><div>default</div></td></tr><tr><td style="font-weight:bold;vertical-align:top;">cookies</td><td style="vertical-align:top;">:</td><td><div><table><tr><td style="font-weight:bold;vertical-align:top;">session_id_admin</td><td style="vertical-align:top;">:</td><td><div>127.0.0.1-e46bab6f-4b6f-4130-a86e-52c736388288<table><tr><td style="font-weight:bold;vertical-align:top;">comment</td><td style="vertical-align:top;">:</td><td><div></div></td></tr><tr><td style="font-weight:bold;vertical-align:top;">domain</td><td style="vertical-align:top;">:</td><td><div></div></td></tr><tr><td style="font-weight:bold;vertical-align:top;">expires</td><td style="vertical-align:top;">:</td><td><div></div></td></tr><tr><td style="font-weight:bold;vertical-align:top;">httponly</td><td style="vertical-align:top;">:</td><td><div></div></td></tr><tr><td style="font-weight:bold;vertical-align:top;">max-age</td><td style="vertical-align:top;">:</td><td><div></div></td></tr><tr><td style="font-weight:bold;vertical-align:top;">path</td><td style="vertical-align:top;">:</td><td><div></div></td></tr><tr><td style="font-weight:bold;vertical-align:top;">secure</td><td style="vertical-align:top;">:</td><td><div></div></td></tr><tr><td style="font-weight:bold;vertical-align:top;">version</td><td style="vertical-align:top;">:</td><td><div></div></td></tr></table></div></td></tr><tr><td style="font-weight:bold;vertical-align:top;">session_id_monitorart</td><td style="vertical-align:top;">:</td><td><div>127.0.0.1-4f95d82e-e086-4379-8362-6a8e12209f78<table><tr><td style="font-weight:bold;vertical-align:top;">comment</td><td style="vertical-align:top;">:</td><td><div></div></td></tr><tr><td style="font-weight:bold;vertical-align:top;">domain</td><td style="vertical-align:top;">:</td><td><div></div></td></tr><tr><td style="font-weight:bold;vertical-align:top;">expires</td><td style="vertical-align:top;">:</td><td><div></div></td></tr><tr><td style="font-weight:bold;vertical-align:top;">httponly</td><td style="vertical-align:top;">:</td><td><div></div></td></tr><tr><td style="font-weight:bold;vertical-align:top;">max-age</td><td style="vertical-align:top;">:</td><td><div></div></td></tr><tr><td style="font-weight:bold;vertical-align:top;">path</td><td style="vertical-align:top;">:</td><td><div></div></td></tr><tr><td style="font-weight:bold;vertical-align:top;">secure</td><td style="vertical-align:top;">:</td><td><div></div></td></tr><tr><td style="font-weight:bold;vertical-align:top;">version</td><td style="vertical-align:top;">:</td><td><div></div></td></tr></table></div></td></tr><tr><td style="font-weight:bold;vertical-align:top;">session_id_pigpin</td><td style="vertical-align:top;">:</td><td><div>127.0.0.1-c9dd88b2-922b-4fce-83c0-fbc66d55e99b<table><tr><td style="font-weight:bold;vertical-align:top;">comment</td><td style="vertical-align:top;">:</td><td><div></div></td></tr><tr><td style="font-weight:bold;vertical-align:top;">domain</td><td style="vertical-align:top;">:</td><td><div></div></td></tr><tr><td style="font-weight:bold;vertical-align:top;">expires</td><td style="vertical-align:top;">:</td><td><div></div></td></tr><tr><td style="font-weight:bold;vertical-align:top;">httponly</td><td style="vertical-align:top;">:</td><td><div></div></td></tr><tr><td style="font-weight:bold;vertical-align:top;">max-age</td><td style="vertical-align:top;">:</td><td><div></div></td></tr><tr><td style="font-weight:bold;vertical-align:top;">path</td><td style="vertical-align:top;">:</td><td><div></div></td></tr><tr><td style="font-weight:bold;vertical-align:top;">secure</td><td style="vertical-align:top;">:</td><td><div></div></td></tr><tr><td style="font-weight:bold;vertical-align:top;">version</td><td style="vertical-align:top;">:</td><td><div></div></td></tr></table></div></td></tr><tr><td style="font-weight:bold;vertical-align:top;">session_id_welcome</td><td style="vertical-align:top;">:</td><td><div>127.0.0.1-b75b8579-b23a-43c2-98e1-40b7bec424e3<table><tr><td style="font-weight:bold;vertical-align:top;">comment</td><td style="vertical-align:top;">:</td><td><div></div></td></tr><tr><td style="font-weight:bold;vertical-align:top;">domain</td><td style="vertical-align:top;">:</td><td><div></div></td></tr><tr><td style="font-weight:bold;vertical-align:top;">expires</td><td style="vertical-align:top;">:</td><td><div></div></td></tr><tr><td style="font-weight:bold;vertical-align:top;">httponly</td><td style="vertical-align:top;">:</td><td><div></div></td></tr><tr><td style="font-weight:bold;vertical-align:top;">max-age</td><td style="vertical-align:top;">:</td><td><div></div></td></tr><tr><td style="font-weight:bold;vertical-align:top;">path</td><td style="vertical-align:top;">:</td><td><div></div></td></tr><tr><td style="font-weight:bold;vertical-align:top;">secure</td><td style="vertical-align:top;">:</td><td><div></div></td></tr><tr><td style="font-weight:bold;vertical-align:top;">version</td><td style="vertical-align:top;">:</td><td><div></div></td></tr></table></div></td></tr></table></div></td></tr><tr><td style="font-weight:bold;vertical-align:top;">env</td><td style="vertical-align:top;">:</td><td><div><table><tr><td style="font-weight:bold;vertical-align:top;">HTTP_ACCEPT</td><td style="vertical-align:top;">:</td><td><div>text/html,application/xhtml+xml,application/xml;q=0.9,image/webp,*/*;q=0.8</div></td></tr><tr><td style="font-weight:bold;vertical-align:top;">HTTP_ACCEPT_ENCODING</td><td style="vertical-align:top;">:</td><td><div>gzip, deflate, sdch</div></td></tr><tr><td style="font-weight:bold;vertical-align:top;">HTTP_ACCEPT_LANGUAGE</td><td style="vertical-align:top;">:</td><td><div>pt-BR,pt;q=0.8,en-US;q=0.6,en;q=0.4,es-419;q=0.2,es;q=0.2</div></td></tr><tr><td style="font-weight:bold;vertical-align:top;">HTTP_CACHE_CONTROL</td><td style="vertical-align:top;">:</td><td><div>max-age=0</div></td></tr><tr><td style="font-weight:bold;vertical-align:top;">HTTP_CONNECTION</td><td style="vertical-align:top;">:</td><td><div>keep-alive</div></td></tr><tr><td style="font-weight:bold;vertical-align:top;">HTTP_COOKIE</td><td style="vertical-align:top;">:</td><td><div>session_id_pigpin=127.0.0.1-c9dd88b2-922b-4fce-83c0-fbc66d55e99b; _ga=GA1.1.723871775.1433537858; __utma=96992031.723871775.1433537858.1443099684.1444866872.59; __utmc=96992031; __utmz=96992031.1433537858.1.1.utmcsr=(direct)|utmccn=(direct)|utmcmd=(none); session_id_welcome=127.0.0.1-b75b8579-b23a-43c2-98e1-40b7bec424e3; session_id_monitorart=127.0.0.1-4f95d82e-e086-4379-8362-6a8e12209f78; session_id_admin=127.0.0.1-e46bab6f-4b6f-4130-a86e-52c736388288</div></td></tr><tr><td style="font-weight:bold;vertical-align:top;">HTTP_HOST</td><td style="vertical-align:top;">:</td><td><div>127.0.0.1:8000</div></td></tr><tr><td style="font-weight:bold;vertical-align:top;">HTTP_USER_AGENT</td><td style="vertical-align:top;">:</td><td><div>Mozilla/5.0 (X11; Linux i686) AppleWebKit/537.36 (KHTML, like Gecko) Chrome/43.0.2357.81 Safari/537.36</div></td></tr><tr><td style="font-weight:bold;vertical-align:top;">PATH_INFO</td><td style="vertical-align:top;">:</td><td><div>/monitorart/default/portal</div></td></tr><tr><td style="font-weight:bold;vertical-align:top;">QUERY_STRING</td><td style="vertical-align:top;">:</td><td><div></div></td></tr><tr><td style="font-weight:bold;vertical-align:top;">REMOTE_ADDR</td><td style="vertical-align:top;">:</td><td><div>127.0.0.1</div></td></tr><tr><td style="font-weight:bold;vertical-align:top;">REMOTE_PORT</td><td style="vertical-align:top;">:</td><td><div>35545</div></td></tr><tr><td style="font-weight:bold;vertical-align:top;">REQUEST_METHOD</td><td style="vertical-align:top;">:</td><td><div>GET</div></td></tr><tr><td style="font-weight:bold;vertical-align:top;">SCRIPT_NAME</td><td style="vertical-align:top;">:</td><td><div></div></td></tr><tr><td style="font-weight:bold;vertical-align:top;">SERVER_NAME</td><td style="vertical-align:top;">:</td><td><div>wellington-Inspiron-1545</div></td></tr><tr><td style="font-weight:bold;vertical-align:top;">SERVER_PORT</td><td style="vertical-align:top;">:</td><td><div>8000</div></td></tr><tr><td style="font-weight:bold;vertical-align:top;">SERVER_PROTOCOL</td><td style="vertical-align:top;">:</td><td><div>HTTP/1.1</div></td></tr><tr><td style="font-weight:bold;vertical-align:top;">SERVER_SOFTWARE</td><td style="vertical-align:top;">:</td><td><div>Rocket 1.2.6</div></td></tr><tr><td style="font-weight:bold;vertical-align:top;">app_folders</td><td style="vertical-align:top;">:</td><td><div>set([&#x27;/home/wellington/SPIn/web2py/applications/admin/&#x27;, &#x27;/home/wellington/SPIn/web2py/applications/welcome/&#x27;, &#x27;/home/wellington/SPIn/web2py/applications/monitorart/&#x27;])</div></td></tr><tr><td style="font-weight:bold;vertical-align:top;">applications_parent</td><td style="vertical-align:top;">:</td><td><div>/home/wellington/SPIn/web2py</div></td></tr><tr><td style="font-weight:bold;vertical-align:top;">cmd_args</td><td style="vertical-align:top;">:</td><td><div><table></table></div></td></tr><tr><td style="font-weight:bold;vertical-align:top;">cmd_options</td><td style="vertical-align:top;">:</td><td><div>&lt;Values at 0xb573d1ec: {&#x27;verbose&#x27;: False, &#x27;ip&#x27;: &#x27;127.0.0.1&#x27;, &#x27;debuglevel&#x27;: 30, &#x27;with_scheduler&#x27;: False, &#x27;ips&#x27;: [&#x27;127.0.1.1&#x27;], &#x27;shutdown_timeout&#x27;: 5, &#x27;taskbar&#x27;: False, &#x27;with_coverage&#x27;: False, &#x27;scheduler_groups&#x27;: None, &#x27;port&#x27;: 8000, &#x27;maxthreads&#x27;: None, &#x27;softcron&#x27;: False, &#x27;server_name&#x27;: &#x27;wellington-Inspiron-1545&#x27;, &#x27;bpython&#x27;: False, &#x27;nogui&#x27;: False, &#x27;pid_filename&#x27;: &#x27;httpserver.pid&#x27;, &#x27;print_errors&#x27;: False, &#x27;extcron&#x27;: False, &#x27;runcron&#x27;: False, &#x27;run_system_tests&#x27;: False, &#x27;test&#x27;: None, &#x27;folder&#x27;: &#x27;/home/wellington/SPIn/web2py&#x27;, &#x27;config&#x27;: &#x27;&#x27;, &#x27;minthreads&#x27;: None, &#x27;shell&#x27;: None, &#x27;run&#x27;: &#x27;&#x27;, &#x27;log_filename&#x27;: &#x27;httpserver.log&#x27;, &#x27;profiler_dir&#x27;: None, &#x27;args&#x27;: [&#x27;&#x27;], &#x27;socket_timeout&#x27;: 5, &#x27;ssl_ca_certificate&#x27;: None, &#x27;scheduler&#x27;: None, &#x27;interfaces&#x27;: None, &#x27;ssl_private_key&#x27;: &#x27;&#x27;, &#x27;gae&#x27;: None, &#x27;password&#x27;: &#x27;&lt;ask&gt;&#x27;, &#x27;request_queue_size&#x27;: 5, &#x27;ssl_certificate&#x27;: &#x27;&#x27;, &#x27;cronjob&#x27;: False, &#x27;numthreads&#x27;: None, &#x27;quiet&#x27;: False, &#x27;import_models&#x27;: False, &#x27;timeout&#x27;: 10, &#x27;plain&#x27;: False, &#x27;nobanner&#x27;: False}&gt;</div></td></tr><tr><td style="font-weight:bold;vertical-align:top;">db_sessions</td><td style="vertical-align:top;">:</td><td><div>set([])</div></td></tr><tr><td style="font-weight:bold;vertical-align:top;">debugging</td><td style="vertical-align:top;">:</td><td><div>False</div></td></tr><tr><td style="font-weight:bold;vertical-align:top;">gluon_parent</td><td style="vertical-align:top;">:</td><td><div>/home/wellington/SPIn/web2py</div></td></tr><tr><td style="font-weight:bold;vertical-align:top;">http_accept</td><td style="vertical-align:top;">:</td><td><div>text/html,application/xhtml+xml,application/xml;q=0.9,image/webp,*/*;q=0.8</div></td></tr><tr><td style="font-weight:bold;vertical-align:top;">http_accept_encoding</td><td style="vertical-align:top;">:</td><td><div>gzip, deflate, sdch</div></td></tr><tr><td style="font-weight:bold;vertical-align:top;">http_accept_language</td><td style="vertical-align:top;">:</td><td><div>pt-BR,pt;q=0.8,en-US;q=0.6,en;q=0.4,es-419;q=0.2,es;q=0.2</div></td></tr><tr><td style="font-weight:bold;vertical-align:top;">http_cache_control</td><td style="vertical-align:top;">:</td><td><div>max-age=0</div></td></tr><tr><td style="font-weight:bold;vertical-align:top;">http_connection</td><td style="vertical-align:top;">:</td><td><div>keep-alive</div></td></tr><tr><td style="font-weight:bold;vertical-align:top;">http_cookie</td><td style="vertical-align:top;">:</td><td><div>session_id_pigpin=127.0.0.1-c9dd88b2-922b-4fce-83c0-fbc66d55e99b; _ga=GA1.1.723871775.1433537858; __utma=96992031.723871775.1433537858.1443099684.1444866872.59; __utmc=96992031; __utmz=96992031.1433537858.1.1.utmcsr=(direct)|utmccn=(direct)|utmcmd=(none); session_id_welcome=127.0.0.1-b75b8579-b23a-43c2-98e1-40b7bec424e3; session_id_monitorart=127.0.0.1-4f95d82e-e086-4379-8362-6a8e12209f78; session_id_admin=127.0.0.1-e46bab6f-4b6f-4130-a86e-52c736388288</div></td></tr><tr><td style="font-weight:bold;vertical-align:top;">http_host</td><td style="vertical-align:top;">:</td><td><div>127.0.0.1:8000</div></td></tr><tr><td style="font-weight:bold;vertical-align:top;">http_user_agent</td><td style="vertical-align:top;">:</td><td><div>Mozilla/5.0 (X11; Linux i686) AppleWebKit/537.36 (KHTML, like Gecko) Chrome/43.0.2357.81 Safari/537.36</div></td></tr><tr><td style="font-weight:bold;vertical-align:top;">is_jython</td><td style="vertical-align:top;">:</td><td><div>False</div></td></tr><tr><td style="font-weight:bold;vertical-align:top;">is_pypy</td><td style="vertical-align:top;">:</td><td><div>False</div></td></tr><tr><td style="font-weight:bold;vertical-align:top;">is_source</td><td style="vertical-align:top;">:</td><td><div>True</div></td></tr><tr><td style="font-weight:bold;vertical-align:top;">local_hosts</td><td style="vertical-align:top;">:</td><td><div><table><tr><td><div>wellington-Inspiron-1545</div></td></tr><tr><td><div>::1</div></td></tr><tr><td><div>127.0.1.1</div></td></tr><tr><td><div>::ffff:127.0.0.1</div></td></tr><tr><td><div>127.0.0.1</div></td></tr></table></div></td></tr><tr><td style="font-weight:bold;vertical-align:top;">path_info</td><td style="vertical-align:top;">:</td><td><div>/monitorart/default/portal</div></td></tr><tr><td style="font-weight:bold;vertical-align:top;">query_string</td><td style="vertical-align:top;">:</td><td><div></div></td></tr><tr><td style="font-weight:bold;vertical-align:top;">remote_addr</td><td style="vertical-align:top;">:</td><td><div>127.0.0.1</div></td></tr><tr><td style="font-weight:bold;vertical-align:top;">remote_port</td><td style="vertical-align:top;">:</td><td><div>35545</div></td></tr><tr><td style="font-weight:bold;vertical-align:top;">request_method</td><td style="vertical-align:top;">:</td><td><div>GET</div></td></tr><tr><td style="font-weight:bold;vertical-align:top;">request_uri</td><td style="vertical-align:top;">:</td><td><div>/monitorart/default/portal</div></td></tr><tr><td style="font-weight:bold;vertical-align:top;">script_name</td><td style="vertical-align:top;">:</td><td><div></div></td></tr><tr><td style="font-weight:bold;vertical-align:top;">server_name</td><td style="vertical-align:top;">:</td><td><div>wellington-Inspiron-1545</div></td></tr><tr><td style="font-weight:bold;vertical-align:top;">server_port</td><td style="vertical-align:top;">:</td><td><div>8000</div></td></tr><tr><td style="font-weight:bold;vertical-align:top;">server_protocol</td><td style="vertical-align:top;">:</td><td><div>HTTP/1.1</div></td></tr><tr><td style="font-weight:bold;vertical-align:top;">server_software</td><td style="vertical-align:top;">:</td><td><div>Rocket 1.2.6</div></td></tr><tr><td style="font-weight:bold;vertical-align:top;">web2py_path</td><td style="vertical-align:top;">:</td><td><div>/home/wellington/SPIn/web2py</div></td></tr><tr><td style="font-weight:bold;vertical-align:top;">web2py_version</td><td style="vertical-align:top;">:</td><td><div>2.11.2-stable+timestamp.2015.05.30.16.33.24</div></td></tr><tr><td style="font-weight:bold;vertical-align:top;">wsgi.errors</td><td style="vertical-align:top;">:</td><td><div>&lt;open file &#x27;&lt;stderr&gt;&#x27;, mode &#x27;w&#x27; at 0xb75060d0&gt;</div></td></tr><tr><td style="font-weight:bold;vertical-align:top;">wsgi.file_wrapper</td><td style="vertical-align:top;">:</td><td><div>&lt;class wsgiref.util.FileWrapper at 0xb66ac68c&gt;</div></td></tr><tr><td style="font-weight:bold;vertical-align:top;">wsgi.input</td><td style="vertical-align:top;">:</td><td><div>&lt;socket._fileobject object at 0xb54e30ec&gt;</div></td></tr><tr><td style="font-weight:bold;vertical-align:top;">wsgi.multiprocess</td><td style="vertical-align:top;">:</td><td><div>False</div></td></tr><tr><td style="font-weight:bold;vertical-align:top;">wsgi.multithread</td><td style="vertical-align:top;">:</td><td><div>True</div></td></tr><tr><td style="font-weight:bold;vertical-align:top;">wsgi.run_once</td><td style="vertical-align:top;">:</td><td><div>False</div></td></tr><tr><td style="font-weight:bold;vertical-align:top;">wsgi.url_scheme</td><td style="vertical-align:top;">:</td><td><div>http</div></td></tr><tr><td style="font-weight:bold;vertical-align:top;">wsgi.version</td><td style="vertical-align:top;">:</td><td><div><table><tr><td><div>1</div></td></tr><tr><td><div>0</div></td></tr></table></div></td></tr><tr><td style="font-weight:bold;vertical-align:top;">wsgi_errors</td><td style="vertical-align:top;">:</td><td><div>&lt;open file &#x27;&lt;stderr&gt;&#x27;, mode &#x27;w&#x27; at 0xb75060d0&gt;</div></td></tr><tr><td style="font-weight:bold;vertical-align:top;">wsgi_file_wrapper</td><td style="vertical-align:top;">:</td><td><div>&lt;class wsgiref.util.FileWrapper at 0xb66ac68c&gt;</div></td></tr><tr><td style="font-weight:bold;vertical-align:top;">wsgi_input</td><td style="vertical-align:top;">:</td><td><div>&lt;socket._fileobject object at 0xb54e30ec&gt;</div></td></tr><tr><td style="font-weight:bold;vertical-align:top;">wsgi_multiprocess</td><td style="vertical-align:top;">:</td><td><div>False</div></td></tr><tr><td style="font-weight:bold;vertical-align:top;">wsgi_multithread</td><td style="vertical-align:top;">:</td><td><div>True</div></td></tr><tr><td style="font-weight:bold;vertical-align:top;">wsgi_run_once</td><td style="vertical-align:top;">:</td><td><div>False</div></td></tr><tr><td style="font-weight:bold;vertical-align:top;">wsgi_url_scheme</td><td style="vertical-align:top;">:</td><td><div>http</div></td></tr><tr><td style="font-weight:bold;vertical-align:top;">wsgi_version</td><td style="vertical-align:top;">:</td><td><div><table><tr><td><div>1</div></td></tr><tr><td><div>0</div></td></tr></table></div></td></tr></table></div></td></tr><tr><td style="font-weight:bold;vertical-align:top;">extension</td><td style="vertical-align:top;">:</td><td><div>html</div></td></tr><tr><td style="font-weight:bold;vertical-align:top;">folder</td><td style="vertical-align:top;">:</td><td><div>/home/wellington/SPIn/web2py/applications/monitorart/</div></td></tr><tr><td style="font-weight:bold;vertical-align:top;">function</td><td style="vertical-align:top;">:</td><td><div>portal</div></td></tr><tr><td style="font-weight:bold;vertical-align:top;">global_settings</td><td style="vertical-align:top;">:</td><td><div><table><tr><td style="font-weight:bold;vertical-align:top;">app_folders</td><td style="vertical-align:top;">:</td><td><div>set([&#x27;/home/wellington/SPIn/web2py/applications/admin/&#x27;, &#x27;/home/wellington/SPIn/web2py/applications/welcome/&#x27;, &#x27;/home/wellington/SPIn/web2py/applications/monitorart/&#x27;])</div></td></tr><tr><td style="font-weight:bold;vertical-align:top;">applications_parent</td><td style="vertical-align:top;">:</td><td><div>/home/wellington/SPIn/web2py</div></td></tr><tr><td style="font-weight:bold;vertical-align:top;">cmd_args</td><td style="vertical-align:top;">:</td><td><div><table></table></div></td></tr><tr><td style="font-weight:bold;vertical-align:top;">cmd_options</td><td style="vertical-align:top;">:</td><td><div>&lt;Values at 0xb573d1ec: {&#x27;verbose&#x27;: False, &#x27;ip&#x27;: &#x27;127.0.0.1&#x27;, &#x27;debuglevel&#x27;: 30, &#x27;with_scheduler&#x27;: False, &#x27;ips&#x27;: [&#x27;127.0.1.1&#x27;], &#x27;shutdown_timeout&#x27;: 5, &#x27;taskbar&#x27;: False, &#x27;with_coverage&#x27;: False, &#x27;scheduler_groups&#x27;: None, &#x27;port&#x27;: 8000, &#x27;maxthreads&#x27;: None, &#x27;softcron&#x27;: False, &#x27;server_name&#x27;: &#x27;wellington-Inspiron-1545&#x27;, &#x27;bpython&#x27;: False, &#x27;nogui&#x27;: False, &#x27;pid_filename&#x27;: &#x27;httpserver.pid&#x27;, &#x27;print_errors&#x27;: False, &#x27;extcron&#x27;: False, &#x27;runcron&#x27;: False, &#x27;run_system_tests&#x27;: False, &#x27;test&#x27;: None, &#x27;folder&#x27;: &#x27;/home/wellington/SPIn/web2py&#x27;, &#x27;config&#x27;: &#x27;&#x27;, &#x27;minthreads&#x27;: None, &#x27;shell&#x27;: None, &#x27;run&#x27;: &#x27;&#x27;, &#x27;log_filename&#x27;: &#x27;httpserver.log&#x27;, &#x27;profiler_dir&#x27;: None, &#x27;args&#x27;: [&#x27;&#x27;], &#x27;socket_timeout&#x27;: 5, &#x27;ssl_ca_certificate&#x27;: None, &#x27;scheduler&#x27;: None, &#x27;interfaces&#x27;: None, &#x27;ssl_private_key&#x27;: &#x27;&#x27;, &#x27;gae&#x27;: None, &#x27;password&#x27;: &#x27;&lt;ask&gt;&#x27;, &#x27;request_queue_size&#x27;: 5, &#x27;ssl_certificate&#x27;: &#x27;&#x27;, &#x27;cronjob&#x27;: False, &#x27;numthreads&#x27;: None, &#x27;quiet&#x27;: False, &#x27;import_models&#x27;: False, &#x27;timeout&#x27;: 10, &#x27;plain&#x27;: False, &#x27;nobanner&#x27;: False}&gt;</div></td></tr><tr><td style="font-weight:bold;vertical-align:top;">db_sessions</td><td style="vertical-align:top;">:</td><td><div>set([])</div></td></tr><tr><td style="font-weight:bold;vertical-align:top;">debugging</td><td style="vertical-align:top;">:</td><td><div>False</div></td></tr><tr><td style="font-weight:bold;vertical-align:top;">gluon_parent</td><td style="vertical-align:top;">:</td><td><div>/home/wellington/SPIn/web2py</div></td></tr><tr><td style="font-weight:bold;vertical-align:top;">is_jython</td><td style="vertical-align:top;">:</td><td><div>False</div></td></tr><tr><td style="font-weight:bold;vertical-align:top;">is_pypy</td><td style="vertical-align:top;">:</td><td><div>False</div></td></tr><tr><td style="font-weight:bold;vertical-align:top;">is_source</td><td style="vertical-align:top;">:</td><td><div>True</div></td></tr><tr><td style="font-weight:bold;vertical-align:top;">local_hosts</td><td style="vertical-align:top;">:</td><td><div><table><tr><td><div>wellington-Inspiron-1545</div></td></tr><tr><td><div>::1</div></td></tr><tr><td><div>127.0.1.1</div></td></tr><tr><td><div>::ffff:127.0.0.1</div></td></tr><tr><td><div>127.0.0.1</div></td></tr></table></div></td></tr><tr><td style="font-weight:bold;vertical-align:top;">web2py_version</td><td style="vertical-align:top;">:</td><td><div>2.11.2-stable+timestamp.2015.05.30.16.33.24</div></td></tr></table></div></td></tr><tr><td style="font-weight:bold;vertical-align:top;">is_https</td><td style="vertical-align:top;">:</td><td><div>False</div></td></tr><tr><td style="font-weight:bold;vertical-align:top;">is_local</td><td style="vertical-align:top;">:</td><td><div>True</div></td></tr><tr><td style="font-weight:bold;vertical-align:top;">is_restful</td><td style="vertical-align:top;">:</td><td><div>False</div></td></tr><tr><td style="font-weight:bold;vertical-align:top;">is_sheduler</td><td style="vertical-align:top;">:</td><td><div>None</div></td></tr><tr><td style="font-weight:bold;vertical-align:top;">is_shell</td><td style="vertical-align:top;">:</td><td><div>None</div></td></tr><tr><td style="font-weight:bold;vertical-align:top;">now</td><td style="vertical-align:top;">:</td><td><div>datetime.datetime(2015, 10, 14, 22, 51, 30, 42998)</div></td></tr><tr><td style="font-weight:bold;vertical-align:top;">raw_args</td><td style="vertical-align:top;">:</td><td><div></div></td></tr><tr><td style="font-weight:bold;vertical-align:top;">raw_extension</td><td style="vertical-align:top;">:</td><td><div>None</div></td></tr><tr><td style="font-weight:bold;vertical-align:top;">url</td><td style="vertical-align:top;">:</td><td><div>/monitorart/default/portal</div></td></tr><tr><td style="font-weight:bold;vertical-align:top;">utcnow</td><td style="vertical-align:top;">:</td><td><div>datetime.datetime(2015, 10, 15, 1, 51, 30, 43020)</div></td></tr><tr><td style="font-weight:bold;vertical-align:top;">wsgi</td><td style="vertical-align:top;">:</td><td><div>&lt;gluon.main.LazyWSGI object at 0xad8b77cc&gt;</div></td></tr></table></div>'
tRp70
sS'frames'
p71
(lp72
(dp73
S'file'
p74
S'/home/wellington/SPIn/web2py/gluon/restricted.py'
p75
sS'dump'
p76
(dp77
S'code'
p78
S'\'response.write(\\\'<!DOCTYPE html>\\\\n<html lang="pt"...</script>\\\\n\\\\n</body>\\\\n\\\\n</html>\\\\n\\\', escape=False)\''
p79
sS'layer'
p80
S"'/home/wellington/SPIn/web2py/applications/monitorart/views/default/portal.html'"
p81
sS'global compile2'
p82
S'<function compile2>'
p83
sS'ccode'
p84
S'undefined'
p85
ssS'lnum'
p86
I226
sS'lines'
p87
(dp88
I224
S'            ccode = code'
p89
sI225
S'        else:'
p90
sI226
S'            ccode = compile2(code, layer)'
p91
sI227
S'        exec ccode in environment'
p92
sI228
S'    except HTTP:'
p93
sI229
S'        raise'
p94
sI230
S'    except RestrictedError:'
p95
sI221
S"    environment['__name__'] = '__restricted__'"
p96
sI222
S'    try:'
p97
sI223
S'        if isinstance(code, types.CodeType):'
p98
ssS'call'
p99
S'(code=\'response.write(\\\'<!DOCTYPE html>\\\\n<html lang="pt"...</script>\\\\n\\\\n</body>\\\\n\\\\n</html>\\\\n\\\', escape=False)\', environment={\'A\': <class \'gluon.html.A\'>, \'ANY_OF\': <class \'gluon.validators.ANY_OF\'>, \'ASSIGNJS\': <function ASSIGNJS>, \'AppConfig\': <function AppConfig>, \'Auth\': <class \'gluon.tools.Auth\'>, \'B\': <class \'gluon.html.B\'>, \'BEAUTIFY\': <class \'gluon.html.BEAUTIFY\'>, \'BODY\': <class \'gluon.html.BODY\'>, \'BR\': <class \'gluon.html.BR\'>, \'BUTTON\': <class \'gluon.html.BUTTON\'>, ...}, layer=\'/home/wellington/SPIn/web2py/applications/monitorart/views/default/portal.html\')'
p100
sS'func'
p101
S'restricted'
p102
sa(dp103
g74
S'/home/wellington/SPIn/web2py/gluon/restricted.py'
p104
sg76
(dp105
S'builtincompile'
p106
S'<built-in function compile>'
p107
sS'code'
p108
S'\'response.write(\\\'<!DOCTYPE html>\\\\n<html lang="pt"...</script>\\\\n\\\\n</body>\\\\n\\\\n</html>\\\\n\\\', escape=False)\''
p109
sS'code.rstrip'
p110
S'<built-in method rstrip of str object>'
p111
sS').replace'
p112
g85
sS'layer'
p113
S"'/home/wellington/SPIn/web2py/applications/monitorart/views/default/portal.html'"
p114
ssg86
I209
sg87
(dp115
I204
S'def compile2(code, layer):'
p116
sI205
S'    """'
p117
sI206
S"    The ``+'\\\\n'`` is necessary else compile fails when code ends in a comment."
p118
sI207
S'    """'
p119
sI208
S''
sI209
S"    return compile(code.rstrip().replace('\\r\\n', '\\n') + '\\n', layer, 'exec')"
p120
sI210
S''
sI211
S''
sI212
S"def restricted(code, environment=None, layer='Unknown'):"
p121
sI213
S'    """'
p122
ssg99
S'(code=\'response.write(\\\'<!DOCTYPE html>\\\\n<html lang="pt"...</script>\\\\n\\\\n</body>\\\\n\\\\n</html>\\\\n\\\', escape=False)\', layer=\'/home/wellington/SPIn/web2py/applications/monitorart/views/default/portal.html\')'
p123
sg101
S'compile2'
p124
sasS'pyver'
p125
S'Python 2.7.9: /usr/bin/python (prefix: /usr)'
p126
sS'session'
p127
g69
(S's\xed\x08\x00\x00<div><table><tr><td style="font-weight:bold;vertical-align:top;">auth</td><td style="vertical-align:top;">:</td><td><div><table><tr><td style="font-weight:bold;vertical-align:top;">expiration</td><td style="vertical-align:top;">:</td><td><div>3600</div></td></tr><tr><td style="font-weight:bold;vertical-align:top;">hmac_key</td><td style="vertical-align:top;">:</td><td><div>5316040f-df26-46b5-a511-b4a295d18c82</div></td></tr><tr><td style="font-weight:bold;vertical-align:top;">last_visit</td><td style="vertical-align:top;">:</td><td><div>datetime.datetime(2015, 10, 14, 22, 51, 30, 42998)</div></td></tr><tr><td style="font-weight:bold;vertical-align:top;">user</td><td style="vertical-align:top;">:</td><td><div><table><tr><td style="font-weight:bold;vertical-align:top;">cidade</td><td style="vertical-align:top;">:</td><td><div>1L</div></td></tr><tr><td style="font-weight:bold;vertical-align:top;">email</td><td style="vertical-align:top;">:</td><td><div>wellingtonf@gec.inatel.br</div></td></tr><tr><td style="font-weight:bold;vertical-align:top;">first_name</td><td style="vertical-align:top;">:</td><td><div>Wellington</div></td></tr><tr><td style="font-weight:bold;vertical-align:top;">id</td><td style="vertical-align:top;">:</td><td><div>1L</div></td></tr><tr><td style="font-weight:bold;vertical-align:top;">last_name</td><td style="vertical-align:top;">:</td><td><div>Faria</div></td></tr><tr><td style="font-weight:bold;vertical-align:top;">registration_id</td><td style="vertical-align:top;">:</td><td><div></div></td></tr><tr><td style="font-weight:bold;vertical-align:top;">registration_key</td><td style="vertical-align:top;">:</td><td><div></div></td></tr><tr><td style="font-weight:bold;vertical-align:top;">reset_password_key</td><td style="vertical-align:top;">:</td><td><div></div></td></tr></table></div></td></tr><tr><td style="font-weight:bold;vertical-align:top;">user_groups</td><td style="vertical-align:top;">:</td><td><div><table><tr><td style="font-weight:bold;vertical-align:top;">1</td><td style="vertical-align:top;">:</td><td><div>user_1</div></td></tr></table></div></td></tr></table></div></td></tr><tr><td style="font-weight:bold;vertical-align:top;">flash</td><td style="vertical-align:top;">:</td><td><div>None</div></td></tr></table></div>'
tRp128
sS'etype'
p129
S"<type 'exceptions.SyntaxError'>"
p130
sS'date'
p131
S'Wed Oct 14 22:51:30 2015'
p132
sS'response'
p133
g69
(S's(@\x00\x00<div><table><tr><td style="font-weight:bold;vertical-align:top;">body</td><td style="vertical-align:top;">:</td><td><div>&lt;cStringIO.StringO object at 0xad8b7560&gt;</div></td></tr><tr><td style="font-weight:bold;vertical-align:top;">cookies</td><td style="vertical-align:top;">:</td><td><div><table><tr><td style="font-weight:bold;vertical-align:top;">session_id_monitorart</td><td style="vertical-align:top;">:</td><td><div>127.0.0.1-4f95d82e-e086-4379-8362-6a8e12209f78<table><tr><td style="font-weight:bold;vertical-align:top;">comment</td><td style="vertical-align:top;">:</td><td><div></div></td></tr><tr><td style="font-weight:bold;vertical-align:top;">domain</td><td style="vertical-align:top;">:</td><td><div></div></td></tr><tr><td style="font-weight:bold;vertical-align:top;">expires</td><td style="vertical-align:top;">:</td><td><div></div></td></tr><tr><td style="font-weight:bold;vertical-align:top;">httponly</td><td style="vertical-align:top;">:</td><td><div></div></td></tr><tr><td style="font-weight:bold;vertical-align:top;">max-age</td><td style="vertical-align:top;">:</td><td><div></div></td></tr><tr><td style="font-weight:bold;vertical-align:top;">path</td><td style="vertical-align:top;">:</td><td><div>/</div></td></tr><tr><td style="font-weight:bold;vertical-align:top;">secure</td><td style="vertical-align:top;">:</td><td><div></div></td></tr><tr><td style="font-weight:bold;vertical-align:top;">version</td><td style="vertical-align:top;">:</td><td><div></div></td></tr></table></div></td></tr></table></div></td></tr><tr><td style="font-weight:bold;vertical-align:top;">delimiters</td><td style="vertical-align:top;">:</td><td><div><table><tr><td><div>{{</div></td></tr><tr><td><div>}}</div></td></tr></table></div></td></tr><tr><td style="font-weight:bold;vertical-align:top;">files</td><td style="vertical-align:top;">:</td><td><div><table></table></div></td></tr><tr><td style="font-weight:bold;vertical-align:top;">flash</td><td style="vertical-align:top;">:</td><td><div></div></td></tr><tr><td style="font-weight:bold;vertical-align:top;">form_label_separator</td><td style="vertical-align:top;">:</td><td><div></div></td></tr><tr><td style="font-weight:bold;vertical-align:top;">formstyle</td><td style="vertical-align:top;">:</td><td><div>bootstrap3_inline</div></td></tr><tr><td style="font-weight:bold;vertical-align:top;">generic_patterns</td><td style="vertical-align:top;">:</td><td><div><table><tr><td><div>*</div></td></tr></table></div></td></tr><tr><td style="font-weight:bold;vertical-align:top;">google_analytics_id</td><td style="vertical-align:top;">:</td><td><div>None</div></td></tr><tr><td style="font-weight:bold;vertical-align:top;">headers</td><td style="vertical-align:top;">:</td><td><div><table><tr><td style="font-weight:bold;vertical-align:top;">X-Powered-By</td><td style="vertical-align:top;">:</td><td><div>web2py</div></td></tr></table></div></td></tr><tr><td style="font-weight:bold;vertical-align:top;">logo</td><td style="vertical-align:top;">:</td><td><div><a class="navbar-brand" href="http://www.web2py.com/" id="web2py-logo"><b>web<span>2</span>py</b>&trade;&nbsp;</a></div></td></tr><tr><td style="font-weight:bold;vertical-align:top;">menu</td><td style="vertical-align:top;">:</td><td><div><table><tr><td><div><table><tr><td><div>Principal</div></td></tr><tr><td><div>False</div></td></tr><tr><td><div>/monitorart/default/index</div></td></tr><tr><td><div><table></table></div></td></tr></table></div></td></tr><tr><td><div><table><tr><td><div>Meus sites</div></td></tr><tr><td><div>False</div></td></tr><tr><td><div>/admin/default/site</div></td></tr></table></div></td></tr><tr><td><div><table><tr><td><div>Esta aplica\xc3\xa7\xc3\xa3o</div></td></tr><tr><td><div>False</div></td></tr><tr><td><div>#</div></td></tr><tr><td><div><table><tr><td><div><table><tr><td><div>Design</div></td></tr><tr><td><div>False</div></td></tr><tr><td><div>/admin/default/design/monitorart</div></td></tr></table></div></td></tr><tr><td><div><li class="divider"></li></div></td></tr><tr><td><div><table><tr><td><div>Controlador</div></td></tr><tr><td><div>False</div></td></tr><tr><td><div>/admin/default/edit/monitorart/controllers/default.py</div></td></tr></table></div></td></tr><tr><td><div><table><tr><td><div>Visualiza\xc3\xa7\xc3\xa3o</div></td></tr><tr><td><div>False</div></td></tr><tr><td><div>/admin/default/edit/monitorart/views/default/portal.html</div></td></tr></table></div></td></tr><tr><td><div><table><tr><td><div>Modelo BD</div></td></tr><tr><td><div>False</div></td></tr><tr><td><div>/admin/default/edit/monitorart/models/db.py</div></td></tr></table></div></td></tr><tr><td><div><table><tr><td><div>Modelo de Menu</div></td></tr><tr><td><div>False</div></td></tr><tr><td><div>/admin/default/edit/monitorart/models/menu.py</div></td></tr></table></div></td></tr><tr><td><div><table><tr><td><div>Config.ini</div></td></tr><tr><td><div>False</div></td></tr><tr><td><div>/admin/default/edit/monitorart/private/appconfig.ini</div></td></tr></table></div></td></tr><tr><td><div><table><tr><td><div>Layout</div></td></tr><tr><td><div>False</div></td></tr><tr><td><div>/admin/default/edit/monitorart/views/layout.html</div></td></tr></table></div></td></tr><tr><td><div><table><tr><td><div>Folha de estilo</div></td></tr><tr><td><div>False</div></td></tr><tr><td><div>/admin/default/edit/monitorart/static/css/web2py-bootstrap3.css</div></td></tr></table></div></td></tr><tr><td><div><table><tr><td><div>banco de dados</div></td></tr><tr><td><div>False</div></td></tr><tr><td><div>/monitorart/appadmin/index</div></td></tr></table></div></td></tr><tr><td><div><table><tr><td><div>Erros</div></td></tr><tr><td><div>False</div></td></tr><tr><td><div>/admin/default/errors/monitorart</div></td></tr></table></div></td></tr><tr><td><div><table><tr><td><div>Sobre</div></td></tr><tr><td><div>False</div></td></tr><tr><td><div>/admin/default/about/monitorart</div></td></tr></table></div></td></tr></table></div></td></tr></table></div></td></tr><tr><td><div><table><tr><td><div>web2py.com</div></td></tr><tr><td><div>False</div></td></tr><tr><td><div>#</div></td></tr><tr><td><div><table><tr><td><div><table><tr><td><div>Download</div></td></tr><tr><td><div>False</div></td></tr><tr><td><div>http://www.web2py.com/examples/default/download</div></td></tr></table></div></td></tr><tr><td><div><table><tr><td><div>Suporte</div></td></tr><tr><td><div>False</div></td></tr><tr><td><div>http://www.web2py.com/examples/default/support</div></td></tr></table></div></td></tr><tr><td><div><table><tr><td><div>Demo</div></td></tr><tr><td><div>False</div></td></tr><tr><td><div>http://web2py.com/demo_admin</div></td></tr></table></div></td></tr><tr><td><div><table><tr><td><div>Exemplos r\xc3\xa1pidos</div></td></tr><tr><td><div>False</div></td></tr><tr><td><div>http://web2py.com/examples/default/examples</div></td></tr></table></div></td></tr><tr><td><div><table><tr><td><div>Perguntas frequentes</div></td></tr><tr><td><div>False</div></td></tr><tr><td><div>http://web2py.com/AlterEgo</div></td></tr></table></div></td></tr><tr><td><div><table><tr><td><div>V\xc3\xaddeos</div></td></tr><tr><td><div>False</div></td></tr><tr><td><div>http://www.web2py.com/examples/default/videos/</div></td></tr></table></div></td></tr><tr><td><div><table><tr><td><div>Aplica\xc3\xa7\xc3\xb5es gratuitas</div></td></tr><tr><td><div>False</div></td></tr><tr><td><div>http://web2py.com/appliances</div></td></tr></table></div></td></tr><tr><td><div><table><tr><td><div>Plugins</div></td></tr><tr><td><div>False</div></td></tr><tr><td><div>http://web2py.com/plugins</div></td></tr></table></div></td></tr><tr><td><div><table><tr><td><div>Receitas</div></td></tr><tr><td><div>False</div></td></tr><tr><td><div>http://web2pyslices.com/</div></td></tr></table></div></td></tr></table></div></td></tr></table></div></td></tr><tr><td><div><table><tr><td><div>Documenta\xc3\xa7\xc3\xa3o</div></td></tr><tr><td><div>False</div></td></tr><tr><td><div>#</div></td></tr><tr><td><div><table><tr><td><div><table><tr><td><div>Online book</div></td></tr><tr><td><div>False</div></td></tr><tr><td><div>http://www.web2py.com/book</div></td></tr></table></div></td></tr><tr><td><div><li class="divider"></li></div></td></tr><tr><td><div><table><tr><td><div>Pref\xc3\xa1cio</div></td></tr><tr><td><div>False</div></td></tr><tr><td><div>http://www.web2py.com/book/default/chapter/00</div></td></tr></table></div></td></tr><tr><td><div><table><tr><td><div>Introdu\xc3\xa7\xc3\xa3o</div></td></tr><tr><td><div>False</div></td></tr><tr><td><div>http://www.web2py.com/book/default/chapter/01</div></td></tr></table></div></td></tr><tr><td><div><table><tr><td><div>Python</div></td></tr><tr><td><div>False</div></td></tr><tr><td><div>http://www.web2py.com/book/default/chapter/02</div></td></tr></table></div></td></tr><tr><td><div><table><tr><td><div>Vis\xc3\xa3o Geral</div></td></tr><tr><td><div>False</div></td></tr><tr><td><div>http://www.web2py.com/book/default/chapter/03</div></td></tr></table></div></td></tr><tr><td><div><table><tr><td><div>The Core</div></td></tr><tr><td><div>False</div></td></tr><tr><td><div>http://www.web2py.com/book/default/chapter/04</div></td></tr></table></div></td></tr><tr><td><div><table><tr><td><div>As views</div></td></tr><tr><td><div>False</div></td></tr><tr><td><div>http://www.web2py.com/book/default/chapter/05</div></td></tr></table></div></td></tr><tr><td><div><table><tr><td><div>banco de dados</div></td></tr><tr><td><div>False</div></td></tr><tr><td><div>http://www.web2py.com/book/default/chapter/06</div></td></tr></table></div></td></tr><tr><td><div><table><tr><td><div>Formul\xc3\xa1rios e Validadores</div></td></tr><tr><td><div>False</div></td></tr><tr><td><div>http://www.web2py.com/book/default/chapter/07</div></td></tr></table></div></td></tr><tr><td><div><table><tr><td><div>Email e SMS</div></td></tr><tr><td><div>False</div></td></tr><tr><td><div>http://www.web2py.com/book/default/chapter/08</div></td></tr></table></div></td></tr><tr><td><div><table><tr><td><div>Controle de Acesso</div></td></tr><tr><td><div>False</div></td></tr><tr><td><div>http://www.web2py.com/book/default/chapter/09</div></td></tr></table></div></td></tr><tr><td><div><table><tr><td><div>Servi\xc3\xa7o</div></td></tr><tr><td><div>False</div></td></tr><tr><td><div>http://www.web2py.com/book/default/chapter/10</div></td></tr></table></div></td></tr><tr><td><div><table><tr><td><div>Receitas de Ajax</div></td></tr><tr><td><div>False</div></td></tr><tr><td><div>http://www.web2py.com/book/default/chapter/11</div></td></tr></table></div></td></tr><tr><td><div><table><tr><td><div>Componentes e Plugins</div></td></tr><tr><td><div>False</div></td></tr><tr><td><div>http://www.web2py.com/book/default/chapter/12</div></td></tr></table></div></td></tr><tr><td><div><table><tr><td><div>Receitas de deploy</div></td></tr><tr><td><div>False</div></td></tr><tr><td><div>http://www.web2py.com/book/default/chapter/13</div></td></tr></table></div></td></tr><tr><td><div><table><tr><td><div>Outras Receitas</div></td></tr><tr><td><div>False</div></td></tr><tr><td><div>http://www.web2py.com/book/default/chapter/14</div></td></tr></table></div></td></tr><tr><td><div><table><tr><td><div>Helping web2py</div></td></tr><tr><td><div>False</div></td></tr><tr><td><div>http://www.web2py.com/book/default/chapter/15</div></td></tr></table></div></td></tr><tr><td><div><table><tr><td><div>Buy web2py\'s book</div></td></tr><tr><td><div>False</div></td></tr><tr><td><div>http://stores.lulu.com/web2py</div></td></tr></table></div></td></tr></table></div></td></tr></table></div></td></tr><tr><td><div><table><tr><td><div>Comunidade</div></td></tr><tr><td><div>False</div></td></tr><tr><td><div>None</div></td></tr><tr><td><div><table><tr><td><div><table><tr><td><div>Grupos</div></td></tr><tr><td><div>False</div></td></tr><tr><td><div>http://www.web2py.com/examples/default/usergroups</div></td></tr></table></div></td></tr><tr><td><div><table><tr><td><div>Twitter</div></td></tr><tr><td><div>False</div></td></tr><tr><td><div>http://twitter.com/web2py</div></td></tr></table></div></td></tr><tr><td><div><table><tr><td><div>Chat ao vivo</div></td></tr><tr><td><div>False</div></td></tr><tr><td><div>http://webchat.freenode.net/?channels=web2py</div></td></tr></table></div></td></tr></table></div></td></tr></table></div></td></tr></table></div></td></tr><tr><td style="font-weight:bold;vertical-align:top;">meta</td><td style="vertical-align:top;">:</td><td><div><table><tr><td style="font-weight:bold;vertical-align:top;">author</td><td style="vertical-align:top;">:</td><td><div>Your Name &lt;you@example.com&gt;</div></td></tr><tr><td style="font-weight:bold;vertical-align:top;">description</td><td style="vertical-align:top;">:</td><td><div>a cool new app</div></td></tr><tr><td style="font-weight:bold;vertical-align:top;">generator</td><td style="vertical-align:top;">:</td><td><div>Web2py Web Framework</div></td></tr><tr><td style="font-weight:bold;vertical-align:top;">keywords</td><td style="vertical-align:top;">:</td><td><div>web2py, python, framework</div></td></tr></table></div></td></tr><tr><td style="font-weight:bold;vertical-align:top;">models_to_run</td><td style="vertical-align:top;">:</td><td><div><table><tr><td><div>^\\w+\\.py$</div></td></tr><tr><td><div>^default/\\w+\\.py$</div></td></tr><tr><td><div>^default/portal/\\w+\\.py$</div></td></tr></table></div></td></tr><tr><td style="font-weight:bold;vertical-align:top;">postprocessing</td><td style="vertical-align:top;">:</td><td><div><table></table></div></td></tr><tr><td style="font-weight:bold;vertical-align:top;">session_client</td><td style="vertical-align:top;">:</td><td><div>127.0.0.1</div></td></tr><tr><td style="font-weight:bold;vertical-align:top;">session_cookie_compression_level</td><td style="vertical-align:top;">:</td><td><div>None</div></td></tr><tr><td style="font-weight:bold;vertical-align:top;">session_cookie_expires</td><td style="vertical-align:top;">:</td><td><div>None</div></td></tr><tr><td style="font-weight:bold;vertical-align:top;">session_cookie_key</td><td style="vertical-align:top;">:</td><td><div>None</div></td></tr><tr><td style="font-weight:bold;vertical-align:top;">session_data_name</td><td style="vertical-align:top;">:</td><td><div>session_data_monitorart</div></td></tr><tr><td style="font-weight:bold;vertical-align:top;">session_file</td><td style="vertical-align:top;">:</td><td><div>&lt;open file &#x27;/home/wellington/SPIn/web2py/applications/monitorart/sessions/163/061/127.0.0.1-4f95d82e-e086-4379-8362-6a8e12209f78&#x27;, mode &#x27;rb+&#x27; at 0xadc8ad88&gt;</div></td></tr><tr><td style="font-weight:bold;vertical-align:top;">session_filename</td><td style="vertical-align:top;">:</td><td><div>/home/wellington/SPIn/web2py/applications/monitorart/sessions/127.0.0.1-4f95d82e-e086-4379-8362-6a8e12209f78</div></td></tr><tr><td style="font-weight:bold;vertical-align:top;">session_hash</td><td style="vertical-align:top;">:</td><td><div>dfbf231756c3bde34b68d23ae63d59b3</div></td></tr><tr><td style="font-weight:bold;vertical-align:top;">session_id</td><td style="vertical-align:top;">:</td><td><div>127.0.0.1-4f95d82e-e086-4379-8362-6a8e12209f78</div></td></tr><tr><td style="font-weight:bold;vertical-align:top;">session_id_name</td><td style="vertical-align:top;">:</td><td><div>session_id_monitorart</div></td></tr><tr><td style="font-weight:bold;vertical-align:top;">session_locked</td><td style="vertical-align:top;">:</td><td><div>True</div></td></tr><tr><td style="font-weight:bold;vertical-align:top;">session_masterapp</td><td style="vertical-align:top;">:</td><td><div>monitorart</div></td></tr><tr><td style="font-weight:bold;vertical-align:top;">session_new</td><td style="vertical-align:top;">:</td><td><div>False</div></td></tr><tr><td style="font-weight:bold;vertical-align:top;">session_storage_type</td><td style="vertical-align:top;">:</td><td><div>file</div></td></tr><tr><td style="font-weight:bold;vertical-align:top;">status</td><td style="vertical-align:top;">:</td><td><div>200</div></td></tr><tr><td style="font-weight:bold;vertical-align:top;">subtitle</td><td style="vertical-align:top;">:</td><td><div></div></td></tr><tr><td style="font-weight:bold;vertical-align:top;">title</td><td style="vertical-align:top;">:</td><td><div>Monitorart</div></td></tr><tr><td style="font-weight:bold;vertical-align:top;">view</td><td style="vertical-align:top;">:</td><td><div>default/portal.html</div></td></tr></table></div>'
tRp134
sS'locals'
p135
(dp136
g4
S"'/home/wellington/SPIn/web2py/applications/monitorart/views/default/portal.html'"
p137
sg6
S'\'response.write(\\\'<!DOCTYPE html>\\\\n<html lang="pt"...</script>\\\\n\\\\n</body>\\\\n\\\\n</html>\\\\n\\\', escape=False)\''
p138
sssS'traceback'
p139
S'Traceback (most recent call last):\n  File "/home/wellington/SPIn/web2py/gluon/restricted.py", line 226, in restricted\n    ccode = compile2(code, layer)\n  File "/home/wellington/SPIn/web2py/gluon/restricted.py", line 209, in compile2\n    return compile(code.rstrip().replace(\'\\r\\n\', \'\\n\') + \'\\n\', layer, \'exec\')\n  File "/home/wellington/SPIn/web2py/applications/monitorart/views/default/portal.html", line 28\n    response.write(leitura.)\n                           ^\nSyntaxError: invalid syntax\n'
p140
s.