(dp1
S'output'
p2
S'<class \'pysqlite2.dbapi2.OperationalError\'> near "ON": syntax error'
p3
sS'layer'
p4
S'/home/wellington/SPIn/web2py/applications/monitorart/controllers/default.py'
p5
sS'code'
p6
S'# -*- coding: utf-8 -*-\n# this file is released under public domain and you can use without limitations\n\n#########################################################################\n## This is a sample controller\n## - index is the default action of any application\n## - user is required for authentication and authorization\n## - download is for downloading files uploaded in the db (does streaming)\n#########################################################################\n\n#Importa\xc3\xa7\xc3\xa3o de Bibliotecas\nfrom datetime import date #Manipula\xc3\xa7\xc3\xa3o de datas\n\ndef index():\n    """\n    example action using the internationalization operator T and flash\n    rendered by views/default/index.html or views/generic.html\n\n    if you need a simple wiki simply replace the two lines below with:\n    return auth.wiki()\n    """\n    if auth.user:\n        redirect(URL(c=\'default\', f=\'portal\'))\n\n\n    response.flash = T("Hello World")\n    return dict(message=T(\'Welcome to web2py!\'))\n\n@auth.requires_login()\ndef portal():\n    #formul\xc3\xa1rio para setar o filto para aprententar os dados\n    \n    usuario=db(db.auth_user.id==auth.user).select().last()\n    \n    if len(request.args)==0:\n        atual = date.today()\n        final = date.fromordinal(atual.toordinal()-7) \n    else:\n        atual = \'\'\n        final = \'\' \n\n    \n    leituras=db((db.leituras.data_leitura<=atual) & (db.leituras.data_leitura>=final) ).select()\n    datas_de_leituras= db((db.leituras.data_leitura<=atual) & (db.leituras.data_leitura>=final) ).select(distinct=db.leituras.data_leitura)\n\n    form = SQLFORM.factory(\n        Field(\'date_atual\', default=atual ,requires=[IS_NOT_EMPTY(),IS_DATE()]),\n        Field(\'date_final\', default=final ,requires=[IS_NOT_EMPTY(),IS_DATE()])\n        )\n\n    #Grafico de linha\n    dados_do_grafico_metano=[]\n    dados_do_grafico_metano.append([\'Hora\',\'Valor\'])\n    \n    dados_do_grafico_monoxido_de_carbono=[] \n    dados_do_grafico_monoxido_de_carbono.append([\'Hora\',\'Valor\'])\n\n\n    for dado in leituras:\n        aux = []\n        aux.append(dado.hora_leitura.strftime("%H:%M:%S"))\n        aux.append(dado.valor)\n        if dado.sensor.tipo_sensor.upper() ==\'METANO\':\n            dados_do_grafico_metano.append(aux)\n        if dado.sensor.tipo_sensor.upper() ==\'MONOXIDO DE CARBONO\':\n            dados_do_grafico_monoxido_de_carbono.append(aux)\n\n    grafico_metano=XML(dados_do_grafico_metano)\n    grafico_monoxido_de_carbono=XML(dados_do_grafico_monoxido_de_carbono)\n\n\n    #Tabela de maximo e minino\n    #Formato: [ [\'Data\',Maximo, Minino], [\'Data\',Maximo, Minino] ...]\n    tabela_metano=[]\n    tabela_monoxido_de_carbono=[] \n\n\n    for data in datas_de_leituras:\n        aux = []\n        aux.append(data.data_leitura)\n        leituras_diaria=db((db.leituras.data_leitura==data.data_leitura) & (db.leituras.sensor==data.sensor) & (db.leituras.hardware==data.hardware)).select(db.leituras.valor)\n        valor_maximo= max(leituras_diaria)\n        valor_minimo= min(leituras_diaria)\n        aux.append(valor_maximo)\n        aux.append(valor_minimo)\n        \n        if dado.sensor.tipo_sensor.upper() ==\'METANO\':\n            tabela_metano.append(aux)\n        if dado.sensor.tipo_sensor.upper() ==\'MONOXIDO DE CARBONO\':\n            tabela_monoxido_de_carbono.append(aux)\n\n    #Formul\xc3\xa1rio de entrada de datas para filtro. \n    if form.process().accepted:\n        response.flash = \'form accepted\'\n        leituras=db((db.leituras.data_leitura<=form.vars.date_atual) & (db.leituras.data_leitura>=form.vars.date_final)).select()\n    elif form.errors:\n        response.flash = \'form has errors\'\n    \n    #Parametros de Retorno da fun\xc3\xa7\xc3\xa3o para gerar a portal\n    retorno = {}\n    retorno.update({\'nome\':usuario.first_name}) #Nome do Usu\xc3\xa1rio Logado\n    retorno.update({\'form\':form}) #Formul\xc3\xa1rio para setar a data para filtro de leituras\n    retorno.update({\'leituras\':leituras}) #Leituras filtradas para apresentar na view\n    retorno.update({\'grafico_metano\':grafico_metano}) #Dados para constru\xc3\xa7\xc3\xa3o do gr\xc3\xa1fico de metano\n    retorno.update({\'grafico_monoxido_de_carbono\':grafico_monoxido_de_carbono}) #Dados para constru\xc3\xa7\xc3\xa3o do gr\xc3\xa1fico de Monixido de Carbono\n\n    return retorno\n\n\n\ndef user():\n    """\n    exposes:\n    http://..../[app]/default/user/login\n    http://..../[app]/default/user/logout\n    http://..../[app]/default/user/register\n    http://..../[app]/default/user/profile\n    http://..../[app]/default/user/retrieve_password\n    http://..../[app]/default/user/change_password\n    http://..../[app]/default/user/manage_users (requires membership in\n    use @auth.requires_login()\n        @auth.requires_membership(\'group name\')\n        @auth.requires_permission(\'read\',\'table name\',record_id)\n    to decorate functions that need access control\n    """\n    form=auth()\n    #form.custom.widget.email.update(_placeholder="E-mail...")\n    #form.custom.widget.password.update(_placeholder="Senha...")\n   \n    return {\'form\':form}\n\n\n@cache.action()\ndef download():\n    """\n    allows downloading of uploaded files\n    http://..../[app]/default/download/[filename]\n    """\n    return response.download(request, db)\n\ndef call():\n    """\n    exposes services. for example:\n    http://..../[app]/default/call/jsonrpc\n    decorate with @services.jsonrpc the functions to expose\n    supports xml, json, xmlrpc, jsonrpc, amfrpc, rss, csv\n    """\n    return service()\n\ndef salvar_dados():\n    # Padr\xc3\xa3o da URL: \n    #               /monitorart/default/salvar_dados?senha=1584as&idh=1&ids=2&valor=98&data=25/12/2015&hora=15:25\n    # Respostas:\n    #   0 - Erro n\xc3\xa3o determinado\n    #   1 - Hardware n\xc3\xa3o encontrado no banco de dados\n    #   2 - Par\xc3\xa2metro via URL est\xc3\xa3o incorretos\n    #   3 - Senha do Hardware ser\xc3\xa1 incorreta\n    #   4 - Inseriu no banco\n    #   5 - Erro ao inserir no banco\n\n\n    resposta=HTML(BODY(\'<erro>\', XML(\'<p>0</p>\')))\n    dados=request.vars\n    print(dados.keys())\n    hardware=db(db.hardwares.id==dados[\'idh\']).select().first()\n    if(hardware):\n        if([\'hora\', \'senha\', \'idh\', \'valor\', \'data\', \'ids\']==dados.keys()):\n            if(dados[\'senha\']==hardware.senha):\n                insersao=db.leituras.insert(\n                    hardware=dados[\'idh\'],\n                    sensor=dados[\'ids\'],\n                    valor=dados[\'valor\'],\n                    data_leitura=dados[\'data\'],\n                    hora_leitura=dados[\'hora\']\n                    )\n                if(insersao>0):\n                    resposta=HTML(BODY(\'<ok>\', XML(\'<p>4</p>\')))\n                else:\n                    resposta=HTML(BODY(\'<erro>\', XML(\'<p>5</p>\')))\n            else:\n                resposta=HTML(BODY(\'<erro>\', XML(\'<p>3</p>\')))\n        else:\n            resposta=HTML(BODY(\'<erro>\', XML(\'<p>2</p>\'))) \n    else:\n         resposta=HTML(BODY(\'<erro>\', XML(\'<p>1</p>\')))\n\n    return resposta\n\n\n\n\n\n\n\n\nresponse._vars=response._caller(portal)\n'
p7
sS'snapshot'
p8
(dp9
S'exception'
p10
(dp11
S'__module__'
p12
S"'pysqlite2.dbapi2'"
p13
sS'__getslice__'
p14
S"<method-wrapper '__getslice__' of OperationalError object>"
p15
sS'__str__'
p16
S"<method-wrapper '__str__' of OperationalError object>"
p17
sS'__reduce__'
p18
S'<built-in method __reduce__ of OperationalError object>'
p19
sS'__dict__'
p20
S'{}'
p21
sS'__sizeof__'
p22
S'<built-in method __sizeof__ of OperationalError object>'
p23
sS'__weakref__'
p24
S'None'
p25
sS'__init__'
p26
S"<method-wrapper '__init__' of OperationalError object>"
p27
sS'__setattr__'
p28
S"<method-wrapper '__setattr__' of OperationalError object>"
p29
sS'__reduce_ex__'
p30
S'<built-in method __reduce_ex__ of OperationalError object>'
p31
sS'__new__'
p32
S'<built-in method __new__ of type object>'
p33
sS'__format__'
p34
S'<built-in method __format__ of OperationalError object>'
p35
sS'__class__'
p36
S"<class 'pysqlite2.dbapi2.OperationalError'>"
p37
sS'__doc__'
p38
S'None'
p39
sS'__getitem__'
p40
S"<method-wrapper '__getitem__' of OperationalError object>"
p41
sS'__setstate__'
p42
S'<built-in method __setstate__ of OperationalError object>'
p43
sS'__getattribute__'
p44
S"<method-wrapper '__getattribute__' of OperationalError object>"
p45
sS'args'
p46
S'(\'near "ON": syntax error\',)'
p47
sS'__subclasshook__'
p48
S'<built-in method __subclasshook__ of type object>'
p49
sS'__unicode__'
p50
S'<built-in method __unicode__ of OperationalError object>'
p51
sS'__delattr__'
p52
S"<method-wrapper '__delattr__' of OperationalError object>"
p53
sS'__repr__'
p54
S"<method-wrapper '__repr__' of OperationalError object>"
p55
sS'__hash__'
p56
S"<method-wrapper '__hash__' of OperationalError object>"
p57
ssS'evalue'
p58
S'near "ON": syntax error'
p59
sS'request'
p60
cgluon.html
XML_unpickle
p61
(S's\xd7c\x00\x00<div><table><tr><td style="font-weight:bold;vertical-align:top;">ajax</td><td style="vertical-align:top;">:</td><td><div>False</div></td></tr><tr><td style="font-weight:bold;vertical-align:top;">application</td><td style="vertical-align:top;">:</td><td><div>monitorart</div></td></tr><tr><td style="font-weight:bold;vertical-align:top;">args</td><td style="vertical-align:top;">:</td><td><div><table></table></div></td></tr><tr><td style="font-weight:bold;vertical-align:top;">cid</td><td style="vertical-align:top;">:</td><td><div>None</div></td></tr><tr><td style="font-weight:bold;vertical-align:top;">client</td><td style="vertical-align:top;">:</td><td><div>127.0.0.1</div></td></tr><tr><td style="font-weight:bold;vertical-align:top;">controller</td><td style="vertical-align:top;">:</td><td><div>default</div></td></tr><tr><td style="font-weight:bold;vertical-align:top;">cookies</td><td style="vertical-align:top;">:</td><td><div><table><tr><td style="font-weight:bold;vertical-align:top;">session_id_admin</td><td style="vertical-align:top;">:</td><td><div>127.0.0.1-e46bab6f-4b6f-4130-a86e-52c736388288<table><tr><td style="font-weight:bold;vertical-align:top;">comment</td><td style="vertical-align:top;">:</td><td><div></div></td></tr><tr><td style="font-weight:bold;vertical-align:top;">domain</td><td style="vertical-align:top;">:</td><td><div></div></td></tr><tr><td style="font-weight:bold;vertical-align:top;">expires</td><td style="vertical-align:top;">:</td><td><div></div></td></tr><tr><td style="font-weight:bold;vertical-align:top;">httponly</td><td style="vertical-align:top;">:</td><td><div></div></td></tr><tr><td style="font-weight:bold;vertical-align:top;">max-age</td><td style="vertical-align:top;">:</td><td><div></div></td></tr><tr><td style="font-weight:bold;vertical-align:top;">path</td><td style="vertical-align:top;">:</td><td><div></div></td></tr><tr><td style="font-weight:bold;vertical-align:top;">secure</td><td style="vertical-align:top;">:</td><td><div></div></td></tr><tr><td style="font-weight:bold;vertical-align:top;">version</td><td style="vertical-align:top;">:</td><td><div></div></td></tr></table></div></td></tr><tr><td style="font-weight:bold;vertical-align:top;">session_id_monitorart</td><td style="vertical-align:top;">:</td><td><div>127.0.0.1-6ccfeccf-9456-4dde-9846-9ff26e0fb504<table><tr><td style="font-weight:bold;vertical-align:top;">comment</td><td style="vertical-align:top;">:</td><td><div></div></td></tr><tr><td style="font-weight:bold;vertical-align:top;">domain</td><td style="vertical-align:top;">:</td><td><div></div></td></tr><tr><td style="font-weight:bold;vertical-align:top;">expires</td><td style="vertical-align:top;">:</td><td><div></div></td></tr><tr><td style="font-weight:bold;vertical-align:top;">httponly</td><td style="vertical-align:top;">:</td><td><div></div></td></tr><tr><td style="font-weight:bold;vertical-align:top;">max-age</td><td style="vertical-align:top;">:</td><td><div></div></td></tr><tr><td style="font-weight:bold;vertical-align:top;">path</td><td style="vertical-align:top;">:</td><td><div></div></td></tr><tr><td style="font-weight:bold;vertical-align:top;">secure</td><td style="vertical-align:top;">:</td><td><div></div></td></tr><tr><td style="font-weight:bold;vertical-align:top;">version</td><td style="vertical-align:top;">:</td><td><div></div></td></tr></table></div></td></tr><tr><td style="font-weight:bold;vertical-align:top;">session_id_pigpin</td><td style="vertical-align:top;">:</td><td><div>127.0.0.1-c9dd88b2-922b-4fce-83c0-fbc66d55e99b<table><tr><td style="font-weight:bold;vertical-align:top;">comment</td><td style="vertical-align:top;">:</td><td><div></div></td></tr><tr><td style="font-weight:bold;vertical-align:top;">domain</td><td style="vertical-align:top;">:</td><td><div></div></td></tr><tr><td style="font-weight:bold;vertical-align:top;">expires</td><td style="vertical-align:top;">:</td><td><div></div></td></tr><tr><td style="font-weight:bold;vertical-align:top;">httponly</td><td style="vertical-align:top;">:</td><td><div></div></td></tr><tr><td style="font-weight:bold;vertical-align:top;">max-age</td><td style="vertical-align:top;">:</td><td><div></div></td></tr><tr><td style="font-weight:bold;vertical-align:top;">path</td><td style="vertical-align:top;">:</td><td><div></div></td></tr><tr><td style="font-weight:bold;vertical-align:top;">secure</td><td style="vertical-align:top;">:</td><td><div></div></td></tr><tr><td style="font-weight:bold;vertical-align:top;">version</td><td style="vertical-align:top;">:</td><td><div></div></td></tr></table></div></td></tr><tr><td style="font-weight:bold;vertical-align:top;">session_id_welcome</td><td style="vertical-align:top;">:</td><td><div>127.0.0.1-e24b092c-3df3-479a-a071-0b84131e12b4<table><tr><td style="font-weight:bold;vertical-align:top;">comment</td><td style="vertical-align:top;">:</td><td><div></div></td></tr><tr><td style="font-weight:bold;vertical-align:top;">domain</td><td style="vertical-align:top;">:</td><td><div></div></td></tr><tr><td style="font-weight:bold;vertical-align:top;">expires</td><td style="vertical-align:top;">:</td><td><div></div></td></tr><tr><td style="font-weight:bold;vertical-align:top;">httponly</td><td style="vertical-align:top;">:</td><td><div></div></td></tr><tr><td style="font-weight:bold;vertical-align:top;">max-age</td><td style="vertical-align:top;">:</td><td><div></div></td></tr><tr><td style="font-weight:bold;vertical-align:top;">path</td><td style="vertical-align:top;">:</td><td><div></div></td></tr><tr><td style="font-weight:bold;vertical-align:top;">secure</td><td style="vertical-align:top;">:</td><td><div></div></td></tr><tr><td style="font-weight:bold;vertical-align:top;">version</td><td style="vertical-align:top;">:</td><td><div></div></td></tr></table></div></td></tr></table></div></td></tr><tr><td style="font-weight:bold;vertical-align:top;">env</td><td style="vertical-align:top;">:</td><td><div><table><tr><td style="font-weight:bold;vertical-align:top;">HTTP_ACCEPT</td><td style="vertical-align:top;">:</td><td><div>text/html,application/xhtml+xml,application/xml;q=0.9,image/webp,*/*;q=0.8</div></td></tr><tr><td style="font-weight:bold;vertical-align:top;">HTTP_ACCEPT_ENCODING</td><td style="vertical-align:top;">:</td><td><div>gzip, deflate, sdch</div></td></tr><tr><td style="font-weight:bold;vertical-align:top;">HTTP_ACCEPT_LANGUAGE</td><td style="vertical-align:top;">:</td><td><div>pt-BR,pt;q=0.8,en-US;q=0.6,en;q=0.4,es-419;q=0.2,es;q=0.2</div></td></tr><tr><td style="font-weight:bold;vertical-align:top;">HTTP_CACHE_CONTROL</td><td style="vertical-align:top;">:</td><td><div>max-age=0</div></td></tr><tr><td style="font-weight:bold;vertical-align:top;">HTTP_CONNECTION</td><td style="vertical-align:top;">:</td><td><div>keep-alive</div></td></tr><tr><td style="font-weight:bold;vertical-align:top;">HTTP_COOKIE</td><td style="vertical-align:top;">:</td><td><div>session_id_pigpin=127.0.0.1-c9dd88b2-922b-4fce-83c0-fbc66d55e99b; _ga=GA1.1.723871775.1433537858; __utma=96992031.723871775.1433537858.1443099684.1444866872.59; __utmc=96992031; __utmz=96992031.1433537858.1.1.utmcsr=(direct)|utmccn=(direct)|utmcmd=(none); session_id_welcome=127.0.0.1-e24b092c-3df3-479a-a071-0b84131e12b4; session_id_admin=127.0.0.1-e46bab6f-4b6f-4130-a86e-52c736388288; session_id_monitorart=127.0.0.1-6ccfeccf-9456-4dde-9846-9ff26e0fb504</div></td></tr><tr><td style="font-weight:bold;vertical-align:top;">HTTP_HOST</td><td style="vertical-align:top;">:</td><td><div>127.0.0.1:8000</div></td></tr><tr><td style="font-weight:bold;vertical-align:top;">HTTP_REFERER</td><td style="vertical-align:top;">:</td><td><div>http://127.0.0.1:8000/monitorart/default/user/login?_next=/monitorart/default/portal</div></td></tr><tr><td style="font-weight:bold;vertical-align:top;">HTTP_USER_AGENT</td><td style="vertical-align:top;">:</td><td><div>Mozilla/5.0 (X11; Linux i686) AppleWebKit/537.36 (KHTML, like Gecko) Chrome/43.0.2357.81 Safari/537.36</div></td></tr><tr><td style="font-weight:bold;vertical-align:top;">PATH_INFO</td><td style="vertical-align:top;">:</td><td><div>/monitorart/default/portal</div></td></tr><tr><td style="font-weight:bold;vertical-align:top;">QUERY_STRING</td><td style="vertical-align:top;">:</td><td><div></div></td></tr><tr><td style="font-weight:bold;vertical-align:top;">REMOTE_ADDR</td><td style="vertical-align:top;">:</td><td><div>127.0.0.1</div></td></tr><tr><td style="font-weight:bold;vertical-align:top;">REMOTE_PORT</td><td style="vertical-align:top;">:</td><td><div>40605</div></td></tr><tr><td style="font-weight:bold;vertical-align:top;">REQUEST_METHOD</td><td style="vertical-align:top;">:</td><td><div>GET</div></td></tr><tr><td style="font-weight:bold;vertical-align:top;">SCRIPT_NAME</td><td style="vertical-align:top;">:</td><td><div></div></td></tr><tr><td style="font-weight:bold;vertical-align:top;">SERVER_NAME</td><td style="vertical-align:top;">:</td><td><div>wellington-Inspiron-1545</div></td></tr><tr><td style="font-weight:bold;vertical-align:top;">SERVER_PORT</td><td style="vertical-align:top;">:</td><td><div>8000</div></td></tr><tr><td style="font-weight:bold;vertical-align:top;">SERVER_PROTOCOL</td><td style="vertical-align:top;">:</td><td><div>HTTP/1.1</div></td></tr><tr><td style="font-weight:bold;vertical-align:top;">SERVER_SOFTWARE</td><td style="vertical-align:top;">:</td><td><div>Rocket 1.2.6</div></td></tr><tr><td style="font-weight:bold;vertical-align:top;">app_folders</td><td style="vertical-align:top;">:</td><td><div>set([&#x27;/home/wellington/SPIn/web2py/applications/admin/&#x27;, &#x27;/home/wellington/SPIn/web2py/applications/welcome/&#x27;, &#x27;/home/wellington/SPIn/web2py/applications/monitorart/&#x27;])</div></td></tr><tr><td style="font-weight:bold;vertical-align:top;">applications_parent</td><td style="vertical-align:top;">:</td><td><div>/home/wellington/SPIn/web2py</div></td></tr><tr><td style="font-weight:bold;vertical-align:top;">cmd_args</td><td style="vertical-align:top;">:</td><td><div><table></table></div></td></tr><tr><td style="font-weight:bold;vertical-align:top;">cmd_options</td><td style="vertical-align:top;">:</td><td><div>&lt;Values at 0xb57731ec: {&#x27;verbose&#x27;: False, &#x27;ip&#x27;: &#x27;127.0.0.1&#x27;, &#x27;debuglevel&#x27;: 30, &#x27;with_scheduler&#x27;: False, &#x27;ips&#x27;: [&#x27;127.0.1.1&#x27;], &#x27;shutdown_timeout&#x27;: 5, &#x27;taskbar&#x27;: False, &#x27;with_coverage&#x27;: False, &#x27;scheduler_groups&#x27;: None, &#x27;port&#x27;: 8000, &#x27;maxthreads&#x27;: None, &#x27;softcron&#x27;: False, &#x27;server_name&#x27;: &#x27;wellington-Inspiron-1545&#x27;, &#x27;bpython&#x27;: False, &#x27;nogui&#x27;: False, &#x27;pid_filename&#x27;: &#x27;httpserver.pid&#x27;, &#x27;print_errors&#x27;: False, &#x27;extcron&#x27;: False, &#x27;runcron&#x27;: False, &#x27;run_system_tests&#x27;: False, &#x27;test&#x27;: None, &#x27;folder&#x27;: &#x27;/home/wellington/SPIn/web2py&#x27;, &#x27;config&#x27;: &#x27;&#x27;, &#x27;minthreads&#x27;: None, &#x27;shell&#x27;: None, &#x27;run&#x27;: &#x27;&#x27;, &#x27;log_filename&#x27;: &#x27;httpserver.log&#x27;, &#x27;profiler_dir&#x27;: None, &#x27;args&#x27;: [&#x27;&#x27;], &#x27;socket_timeout&#x27;: 5, &#x27;ssl_ca_certificate&#x27;: None, &#x27;scheduler&#x27;: None, &#x27;interfaces&#x27;: None, &#x27;ssl_private_key&#x27;: &#x27;&#x27;, &#x27;gae&#x27;: None, &#x27;password&#x27;: &#x27;&lt;ask&gt;&#x27;, &#x27;request_queue_size&#x27;: 5, &#x27;ssl_certificate&#x27;: &#x27;&#x27;, &#x27;cronjob&#x27;: False, &#x27;numthreads&#x27;: None, &#x27;quiet&#x27;: False, &#x27;import_models&#x27;: False, &#x27;timeout&#x27;: 10, &#x27;plain&#x27;: False, &#x27;nobanner&#x27;: False}&gt;</div></td></tr><tr><td style="font-weight:bold;vertical-align:top;">db_sessions</td><td style="vertical-align:top;">:</td><td><div>set([])</div></td></tr><tr><td style="font-weight:bold;vertical-align:top;">debugging</td><td style="vertical-align:top;">:</td><td><div>False</div></td></tr><tr><td style="font-weight:bold;vertical-align:top;">gluon_parent</td><td style="vertical-align:top;">:</td><td><div>/home/wellington/SPIn/web2py</div></td></tr><tr><td style="font-weight:bold;vertical-align:top;">http_accept</td><td style="vertical-align:top;">:</td><td><div>text/html,application/xhtml+xml,application/xml;q=0.9,image/webp,*/*;q=0.8</div></td></tr><tr><td style="font-weight:bold;vertical-align:top;">http_accept_encoding</td><td style="vertical-align:top;">:</td><td><div>gzip, deflate, sdch</div></td></tr><tr><td style="font-weight:bold;vertical-align:top;">http_accept_language</td><td style="vertical-align:top;">:</td><td><div>pt-BR,pt;q=0.8,en-US;q=0.6,en;q=0.4,es-419;q=0.2,es;q=0.2</div></td></tr><tr><td style="font-weight:bold;vertical-align:top;">http_cache_control</td><td style="vertical-align:top;">:</td><td><div>max-age=0</div></td></tr><tr><td style="font-weight:bold;vertical-align:top;">http_connection</td><td style="vertical-align:top;">:</td><td><div>keep-alive</div></td></tr><tr><td style="font-weight:bold;vertical-align:top;">http_cookie</td><td style="vertical-align:top;">:</td><td><div>session_id_pigpin=127.0.0.1-c9dd88b2-922b-4fce-83c0-fbc66d55e99b; _ga=GA1.1.723871775.1433537858; __utma=96992031.723871775.1433537858.1443099684.1444866872.59; __utmc=96992031; __utmz=96992031.1433537858.1.1.utmcsr=(direct)|utmccn=(direct)|utmcmd=(none); session_id_welcome=127.0.0.1-e24b092c-3df3-479a-a071-0b84131e12b4; session_id_admin=127.0.0.1-e46bab6f-4b6f-4130-a86e-52c736388288; session_id_monitorart=127.0.0.1-6ccfeccf-9456-4dde-9846-9ff26e0fb504</div></td></tr><tr><td style="font-weight:bold;vertical-align:top;">http_host</td><td style="vertical-align:top;">:</td><td><div>127.0.0.1:8000</div></td></tr><tr><td style="font-weight:bold;vertical-align:top;">http_referer</td><td style="vertical-align:top;">:</td><td><div>http://127.0.0.1:8000/monitorart/default/user/login?_next=/monitorart/default/portal</div></td></tr><tr><td style="font-weight:bold;vertical-align:top;">http_user_agent</td><td style="vertical-align:top;">:</td><td><div>Mozilla/5.0 (X11; Linux i686) AppleWebKit/537.36 (KHTML, like Gecko) Chrome/43.0.2357.81 Safari/537.36</div></td></tr><tr><td style="font-weight:bold;vertical-align:top;">is_jython</td><td style="vertical-align:top;">:</td><td><div>False</div></td></tr><tr><td style="font-weight:bold;vertical-align:top;">is_pypy</td><td style="vertical-align:top;">:</td><td><div>False</div></td></tr><tr><td style="font-weight:bold;vertical-align:top;">is_source</td><td style="vertical-align:top;">:</td><td><div>True</div></td></tr><tr><td style="font-weight:bold;vertical-align:top;">local_hosts</td><td style="vertical-align:top;">:</td><td><div><table><tr><td><div>wellington-Inspiron-1545</div></td></tr><tr><td><div>::1</div></td></tr><tr><td><div>127.0.1.1</div></td></tr><tr><td><div>::ffff:127.0.0.1</div></td></tr><tr><td><div>127.0.0.1</div></td></tr></table></div></td></tr><tr><td style="font-weight:bold;vertical-align:top;">path_info</td><td style="vertical-align:top;">:</td><td><div>/monitorart/default/portal</div></td></tr><tr><td style="font-weight:bold;vertical-align:top;">query_string</td><td style="vertical-align:top;">:</td><td><div></div></td></tr><tr><td style="font-weight:bold;vertical-align:top;">remote_addr</td><td style="vertical-align:top;">:</td><td><div>127.0.0.1</div></td></tr><tr><td style="font-weight:bold;vertical-align:top;">remote_port</td><td style="vertical-align:top;">:</td><td><div>40605</div></td></tr><tr><td style="font-weight:bold;vertical-align:top;">request_method</td><td style="vertical-align:top;">:</td><td><div>GET</div></td></tr><tr><td style="font-weight:bold;vertical-align:top;">request_uri</td><td style="vertical-align:top;">:</td><td><div>/monitorart/default/portal</div></td></tr><tr><td style="font-weight:bold;vertical-align:top;">script_name</td><td style="vertical-align:top;">:</td><td><div></div></td></tr><tr><td style="font-weight:bold;vertical-align:top;">server_name</td><td style="vertical-align:top;">:</td><td><div>wellington-Inspiron-1545</div></td></tr><tr><td style="font-weight:bold;vertical-align:top;">server_port</td><td style="vertical-align:top;">:</td><td><div>8000</div></td></tr><tr><td style="font-weight:bold;vertical-align:top;">server_protocol</td><td style="vertical-align:top;">:</td><td><div>HTTP/1.1</div></td></tr><tr><td style="font-weight:bold;vertical-align:top;">server_software</td><td style="vertical-align:top;">:</td><td><div>Rocket 1.2.6</div></td></tr><tr><td style="font-weight:bold;vertical-align:top;">web2py_path</td><td style="vertical-align:top;">:</td><td><div>/home/wellington/SPIn/web2py</div></td></tr><tr><td style="font-weight:bold;vertical-align:top;">web2py_version</td><td style="vertical-align:top;">:</td><td><div>2.11.2-stable+timestamp.2015.05.30.16.33.24</div></td></tr><tr><td style="font-weight:bold;vertical-align:top;">wsgi.errors</td><td style="vertical-align:top;">:</td><td><div>&lt;open file &#x27;&lt;stderr&gt;&#x27;, mode &#x27;w&#x27; at 0xb753c0d0&gt;</div></td></tr><tr><td style="font-weight:bold;vertical-align:top;">wsgi.file_wrapper</td><td style="vertical-align:top;">:</td><td><div>&lt;class wsgiref.util.FileWrapper at 0xb66e168c&gt;</div></td></tr><tr><td style="font-weight:bold;vertical-align:top;">wsgi.input</td><td style="vertical-align:top;">:</td><td><div>&lt;socket._fileobject object at 0xad608d6c&gt;</div></td></tr><tr><td style="font-weight:bold;vertical-align:top;">wsgi.multiprocess</td><td style="vertical-align:top;">:</td><td><div>False</div></td></tr><tr><td style="font-weight:bold;vertical-align:top;">wsgi.multithread</td><td style="vertical-align:top;">:</td><td><div>True</div></td></tr><tr><td style="font-weight:bold;vertical-align:top;">wsgi.run_once</td><td style="vertical-align:top;">:</td><td><div>False</div></td></tr><tr><td style="font-weight:bold;vertical-align:top;">wsgi.url_scheme</td><td style="vertical-align:top;">:</td><td><div>http</div></td></tr><tr><td style="font-weight:bold;vertical-align:top;">wsgi.version</td><td style="vertical-align:top;">:</td><td><div><table><tr><td><div>1</div></td></tr><tr><td><div>0</div></td></tr></table></div></td></tr><tr><td style="font-weight:bold;vertical-align:top;">wsgi_errors</td><td style="vertical-align:top;">:</td><td><div>&lt;open file &#x27;&lt;stderr&gt;&#x27;, mode &#x27;w&#x27; at 0xb753c0d0&gt;</div></td></tr><tr><td style="font-weight:bold;vertical-align:top;">wsgi_file_wrapper</td><td style="vertical-align:top;">:</td><td><div>&lt;class wsgiref.util.FileWrapper at 0xb66e168c&gt;</div></td></tr><tr><td style="font-weight:bold;vertical-align:top;">wsgi_input</td><td style="vertical-align:top;">:</td><td><div>&lt;socket._fileobject object at 0xad608d6c&gt;</div></td></tr><tr><td style="font-weight:bold;vertical-align:top;">wsgi_multiprocess</td><td style="vertical-align:top;">:</td><td><div>False</div></td></tr><tr><td style="font-weight:bold;vertical-align:top;">wsgi_multithread</td><td style="vertical-align:top;">:</td><td><div>True</div></td></tr><tr><td style="font-weight:bold;vertical-align:top;">wsgi_run_once</td><td style="vertical-align:top;">:</td><td><div>False</div></td></tr><tr><td style="font-weight:bold;vertical-align:top;">wsgi_url_scheme</td><td style="vertical-align:top;">:</td><td><div>http</div></td></tr><tr><td style="font-weight:bold;vertical-align:top;">wsgi_version</td><td style="vertical-align:top;">:</td><td><div><table><tr><td><div>1</div></td></tr><tr><td><div>0</div></td></tr></table></div></td></tr></table></div></td></tr><tr><td style="font-weight:bold;vertical-align:top;">extension</td><td style="vertical-align:top;">:</td><td><div>html</div></td></tr><tr><td style="font-weight:bold;vertical-align:top;">folder</td><td style="vertical-align:top;">:</td><td><div>/home/wellington/SPIn/web2py/applications/monitorart/</div></td></tr><tr><td style="font-weight:bold;vertical-align:top;">function</td><td style="vertical-align:top;">:</td><td><div>portal</div></td></tr><tr><td style="font-weight:bold;vertical-align:top;">global_settings</td><td style="vertical-align:top;">:</td><td><div><table><tr><td style="font-weight:bold;vertical-align:top;">app_folders</td><td style="vertical-align:top;">:</td><td><div>set([&#x27;/home/wellington/SPIn/web2py/applications/admin/&#x27;, &#x27;/home/wellington/SPIn/web2py/applications/welcome/&#x27;, &#x27;/home/wellington/SPIn/web2py/applications/monitorart/&#x27;])</div></td></tr><tr><td style="font-weight:bold;vertical-align:top;">applications_parent</td><td style="vertical-align:top;">:</td><td><div>/home/wellington/SPIn/web2py</div></td></tr><tr><td style="font-weight:bold;vertical-align:top;">cmd_args</td><td style="vertical-align:top;">:</td><td><div><table></table></div></td></tr><tr><td style="font-weight:bold;vertical-align:top;">cmd_options</td><td style="vertical-align:top;">:</td><td><div>&lt;Values at 0xb57731ec: {&#x27;verbose&#x27;: False, &#x27;ip&#x27;: &#x27;127.0.0.1&#x27;, &#x27;debuglevel&#x27;: 30, &#x27;with_scheduler&#x27;: False, &#x27;ips&#x27;: [&#x27;127.0.1.1&#x27;], &#x27;shutdown_timeout&#x27;: 5, &#x27;taskbar&#x27;: False, &#x27;with_coverage&#x27;: False, &#x27;scheduler_groups&#x27;: None, &#x27;port&#x27;: 8000, &#x27;maxthreads&#x27;: None, &#x27;softcron&#x27;: False, &#x27;server_name&#x27;: &#x27;wellington-Inspiron-1545&#x27;, &#x27;bpython&#x27;: False, &#x27;nogui&#x27;: False, &#x27;pid_filename&#x27;: &#x27;httpserver.pid&#x27;, &#x27;print_errors&#x27;: False, &#x27;extcron&#x27;: False, &#x27;runcron&#x27;: False, &#x27;run_system_tests&#x27;: False, &#x27;test&#x27;: None, &#x27;folder&#x27;: &#x27;/home/wellington/SPIn/web2py&#x27;, &#x27;config&#x27;: &#x27;&#x27;, &#x27;minthreads&#x27;: None, &#x27;shell&#x27;: None, &#x27;run&#x27;: &#x27;&#x27;, &#x27;log_filename&#x27;: &#x27;httpserver.log&#x27;, &#x27;profiler_dir&#x27;: None, &#x27;args&#x27;: [&#x27;&#x27;], &#x27;socket_timeout&#x27;: 5, &#x27;ssl_ca_certificate&#x27;: None, &#x27;scheduler&#x27;: None, &#x27;interfaces&#x27;: None, &#x27;ssl_private_key&#x27;: &#x27;&#x27;, &#x27;gae&#x27;: None, &#x27;password&#x27;: &#x27;&lt;ask&gt;&#x27;, &#x27;request_queue_size&#x27;: 5, &#x27;ssl_certificate&#x27;: &#x27;&#x27;, &#x27;cronjob&#x27;: False, &#x27;numthreads&#x27;: None, &#x27;quiet&#x27;: False, &#x27;import_models&#x27;: False, &#x27;timeout&#x27;: 10, &#x27;plain&#x27;: False, &#x27;nobanner&#x27;: False}&gt;</div></td></tr><tr><td style="font-weight:bold;vertical-align:top;">db_sessions</td><td style="vertical-align:top;">:</td><td><div>set([])</div></td></tr><tr><td style="font-weight:bold;vertical-align:top;">debugging</td><td style="vertical-align:top;">:</td><td><div>False</div></td></tr><tr><td style="font-weight:bold;vertical-align:top;">gluon_parent</td><td style="vertical-align:top;">:</td><td><div>/home/wellington/SPIn/web2py</div></td></tr><tr><td style="font-weight:bold;vertical-align:top;">is_jython</td><td style="vertical-align:top;">:</td><td><div>False</div></td></tr><tr><td style="font-weight:bold;vertical-align:top;">is_pypy</td><td style="vertical-align:top;">:</td><td><div>False</div></td></tr><tr><td style="font-weight:bold;vertical-align:top;">is_source</td><td style="vertical-align:top;">:</td><td><div>True</div></td></tr><tr><td style="font-weight:bold;vertical-align:top;">local_hosts</td><td style="vertical-align:top;">:</td><td><div><table><tr><td><div>wellington-Inspiron-1545</div></td></tr><tr><td><div>::1</div></td></tr><tr><td><div>127.0.1.1</div></td></tr><tr><td><div>::ffff:127.0.0.1</div></td></tr><tr><td><div>127.0.0.1</div></td></tr></table></div></td></tr><tr><td style="font-weight:bold;vertical-align:top;">web2py_version</td><td style="vertical-align:top;">:</td><td><div>2.11.2-stable+timestamp.2015.05.30.16.33.24</div></td></tr></table></div></td></tr><tr><td style="font-weight:bold;vertical-align:top;">is_https</td><td style="vertical-align:top;">:</td><td><div>False</div></td></tr><tr><td style="font-weight:bold;vertical-align:top;">is_local</td><td style="vertical-align:top;">:</td><td><div>True</div></td></tr><tr><td style="font-weight:bold;vertical-align:top;">is_restful</td><td style="vertical-align:top;">:</td><td><div>False</div></td></tr><tr><td style="font-weight:bold;vertical-align:top;">is_sheduler</td><td style="vertical-align:top;">:</td><td><div>None</div></td></tr><tr><td style="font-weight:bold;vertical-align:top;">is_shell</td><td style="vertical-align:top;">:</td><td><div>None</div></td></tr><tr><td style="font-weight:bold;vertical-align:top;">now</td><td style="vertical-align:top;">:</td><td><div>datetime.datetime(2015, 11, 3, 15, 15, 27, 424951)</div></td></tr><tr><td style="font-weight:bold;vertical-align:top;">raw_args</td><td style="vertical-align:top;">:</td><td><div></div></td></tr><tr><td style="font-weight:bold;vertical-align:top;">raw_extension</td><td style="vertical-align:top;">:</td><td><div>None</div></td></tr><tr><td style="font-weight:bold;vertical-align:top;">url</td><td style="vertical-align:top;">:</td><td><div>/monitorart/default/portal</div></td></tr><tr><td style="font-weight:bold;vertical-align:top;">utcnow</td><td style="vertical-align:top;">:</td><td><div>datetime.datetime(2015, 11, 3, 17, 15, 27, 424971)</div></td></tr><tr><td style="font-weight:bold;vertical-align:top;">wsgi</td><td style="vertical-align:top;">:</td><td><div>&lt;gluon.main.LazyWSGI object at 0xad484f6c&gt;</div></td></tr></table></div>'
tRp62
sS'frames'
p63
(lp64
(dp65
S'file'
p66
S'/home/wellington/SPIn/web2py/gluon/restricted.py'
p67
sS'dump'
p68
(dp69
S'environment'
p70
S"{'A': <class 'gluon.html.A'>, 'ANY_OF': <class 'gluon.validators.ANY_OF'>, 'ASSIGNJS': <function ASSIGNJS>, 'AppConfig': <function AppConfig>, 'Auth': <class 'gluon.tools.Auth'>, 'B': <class 'gluon.html.B'>, 'BEAUTIFY': <class 'gluon.html.BEAUTIFY'>, 'BODY': <class 'gluon.html.BODY'>, 'BR': <class 'gluon.html.BR'>, 'BUTTON': <class 'gluon.html.BUTTON'>, ...}"
p71
sS'ccode'
p72
S'<code object <module> at 0xad483b60, file "/home...ions/monitorart/controllers/default.py", line 12>'
p73
ssS'lnum'
p74
I227
sS'lines'
p75
(dp76
I224
S'            ccode = code'
p77
sI225
S'        else:'
p78
sI226
S'            ccode = compile2(code, layer)'
p79
sI227
S'        exec ccode in environment'
p80
sI228
S'    except HTTP:'
p81
sI229
S'        raise'
p82
sI230
S'    except RestrictedError:'
p83
sI231
S'        # do not encapsulate (obfuscate) the original RestrictedError'
p84
sI222
S'    try:'
p85
sI223
S'        if isinstance(code, types.CodeType):'
p86
ssS'call'
p87
S"(code='# -*- coding: utf-8 -*-\\n# this file is released ...\\n\\n\\n\\n\\n\\n\\n\\n\\nresponse._vars=response._caller(portal)\\n', environment={'A': <class 'gluon.html.A'>, 'ANY_OF': <class 'gluon.validators.ANY_OF'>, 'ASSIGNJS': <function ASSIGNJS>, 'AppConfig': <function AppConfig>, 'Auth': <class 'gluon.tools.Auth'>, 'B': <class 'gluon.html.B'>, 'BEAUTIFY': <class 'gluon.html.BEAUTIFY'>, 'BODY': <class 'gluon.html.BODY'>, 'BR': <class 'gluon.html.BR'>, 'BUTTON': <class 'gluon.html.BUTTON'>, ...}, layer='/home/wellington/SPIn/web2py/applications/monitorart/controllers/default.py')"
p88
sS'func'
p89
S'restricted'
p90
sa(dp91
g66
S'/home/wellington/SPIn/web2py/applications/monitorart/controllers/default.py'
p92
sg68
(dp93
sg74
I196
sg75
(dp94
I192
S''
sI193
S''
sI194
S''
sI185
S"         resposta=HTML(BODY('<erro>', XML('<p>1</p>')))"
p95
sI186
S''
sI187
S'    return resposta'
p96
sI188
S''
sI189
S''
sI190
S''
sI191
S''
ssg87
S'()'
p97
sg89
S'<module>'
p98
sa(dp99
g66
S'/home/wellington/SPIn/web2py/gluon/globals.py'
p100
sg68
(dp101
S'self'
p102
S'undefined'
p103
sS'f'
S'<function portal>'
p104
ssg74
I412
sg75
(dp105
I416
S"        self.generic_patterns = ['*']"
p106
sI407
S"        self.flash = ''            # used by the default view layout"
p107
sI408
S'        self.meta = Storage()      # used by web2py_ajax.html'
p108
sI409
S'        self.menu = []             # used by the default view layout'
p109
sI410
S'        self.files = []            # used by web2py_ajax.html'
p110
sI411
S'        self._vars = None'
p111
sI412
S'        self._caller = lambda f: f()'
p112
sI413
S'        self._view_environment = None'
p113
sI414
S'        self._custom_commit = None'
p114
sI415
S'        self._custom_rollback = None'
p115
ssg87
S'(f=<function portal>)'
p116
sg89
S'<lambda>'
p117
sa(dp118
g66
S'/home/wellington/SPIn/web2py/gluon/tools.py'
p119
sg68
(dp120
S'action'
p121
S'<function portal>'
p122
sS'a'
S'()'
p123
sS'b'
g21
ssg74
I3583
sg75
(dp124
I3584
S'            f.__doc__ = action.__doc__'
p125
sI3585
S'            f.__name__ = action.__name__'
p126
sI3586
S'            f.__dict__.update(action.__dict__)'
p127
sI3587
S'            return f'
p128
sI3578
S'                    flag = condition'
p129
sI3579
S'                if not flag:'
p130
sI3580
S'                    current.session.flash = self.messages.access_denied'
p131
sI3581
S'                    return call_or_redirect('
p132
sI3582
S'                        self.settings.on_failed_authorization)'
p133
sI3583
S'                return action(*a, **b)'
p134
ssg87
S'(*a=(), **b={})'
p135
sg89
S'f'
sa(dp136
g66
S'/home/wellington/SPIn/web2py/applications/monitorart/controllers/default.py'
p137
sg68
(dp138
S'db.leituras'
p139
S'<Table leituras (id,hardware,sensor,valor,data_leitura,hora_leitura)>'
p140
sS'db.leituras.data_leitura'
p141
S'<pydal.objects.Field object>'
p142
sS'distinct'
p143
g103
sS').select'
p144
g103
sS'global db'
p145
S'<DAL uri="sqlite://storage.db">'
p146
sS'datas_de_leituras'
p147
g103
sS'atual'
p148
S'datetime.date(2015, 11, 3)'
p149
sS'final'
p150
S'datetime.date(2015, 10, 27)'
p151
ssg74
I44
sg75
(dp152
I39
S"        atual = ''"
p153
sI40
S"        final = ''"
p154
sI41
S''
sI42
S''
sI43
S'    leituras=db((db.leituras.data_leitura<=atual) & (db.leituras.data_leitura>=final) ).select()'
p155
sI44
S'    datas_de_leituras= db((db.leituras.data_leitura<=atual) & (db.leituras.data_leitura>=final) ).select(distinct=db.leituras.data_leitura)'
p156
sI45
S''
sI46
S'    form = SQLFORM.factory('
p157
sI47
S"        Field('date_atual', default=atual ,requires=[IS_NOT_EMPTY(),IS_DATE()]),"
p158
sI48
S"        Field('date_final', default=final ,requires=[IS_NOT_EMPTY(),IS_DATE()])"
p159
ssg87
S'()'
p160
sg89
S'portal'
p161
sa(dp162
g66
S'/home/wellington/SPIn/web2py/gluon/packages/dal/pydal/objects.py'
p163
sg68
(dp164
S'self.query'
p165
S"<Query ((leituras.data_leitura <= '2015-11-03') AND (leituras.data_leitura >= '2015-10-27'))>"
p166
sS'adapter.select'
p167
S'<bound method SQLiteAdapter.select of <pydal.adapters.sqlite.SQLiteAdapter object>>'
p168
sS'fields'
p169
S'[<pydal.objects.Field object>, <pydal.objects.Field object>, <pydal.objects.Field object>, <pydal.objects.Field object>, <pydal.objects.Field object>, <pydal.objects.Field object>]'
p170
sS'adapter'
p171
S'<pydal.adapters.sqlite.SQLiteAdapter object>'
p172
sS'attributes'
p173
S"{'distinct': <pydal.objects.Field object>}"
p174
sS'self'
p175
S"<Set ((leituras.data_leitura <= '2015-11-03') AND (leituras.data_leitura >= '2015-10-27'))>"
p176
ssg74
I1986
sg75
(dp177
I1984
S"                                    attributes.get('groupby',None))"
p178
sI1985
S'        fields = adapter.expand_all(fields, tablenames)'
p179
sI1986
S'        return adapter.select(self.query,fields,attributes)'
p180
sI1987
S''
sI1988
S'    def iterselect(self, *fields, **attributes):'
p181
sI1989
S'        adapter = self.db._adapter'
p182
sI1990
S'        tablenames = adapter.tables(self.query,'
p183
sI1981
S"                                    attributes.get('join',None),"
p184
sI1982
S"                                    attributes.get('left',None),"
p185
sI1983
S"                                    attributes.get('orderby',None),"
p186
ssg87
S"(self=<Set ((leituras.data_leitura <= '2015-11-03') AND (leituras.data_leitura >= '2015-10-27'))>, *fields=[<pydal.objects.Field object>, <pydal.objects.Field object>, <pydal.objects.Field object>, <pydal.objects.Field object>, <pydal.objects.Field object>, <pydal.objects.Field object>], **attributes={'distinct': <pydal.objects.Field object>})"
p187
sg89
S'select'
p188
sa(dp189
g66
S'/home/wellington/SPIn/web2py/gluon/packages/dal/pydal/adapters/sqlite.py'
p190
sg68
(dp191
S'fields'
p192
S'[<pydal.objects.Field object>, <pydal.objects.Field object>, <pydal.objects.Field object>, <pydal.objects.Field object>, <pydal.objects.Field object>, <pydal.objects.Field object>]'
p193
sS'self'
p194
S'<pydal.adapters.sqlite.SQLiteAdapter object>'
p195
sS').select'
p196
S'<bound method SQLiteAdapter.select of <pydal.adapters.sqlite.SQLiteAdapter object>>'
p197
sS'attributes'
p198
S"{'distinct': <pydal.objects.Field object>}"
p199
sS'global SQLiteAdapter'
p200
S"<class 'pydal.adapters.sqlite.SQLiteAdapter'>"
p201
sS'query'
p202
S"<Query ((leituras.data_leitura <= '2015-11-03') AND (leituras.data_leitura >= '2015-10-27'))>"
p203
sS'builtinsuper'
p204
S"<type 'super'>"
p205
ssg74
I122
sg75
(dp206
I117
S'        Note that the entire database, rather than one record, is locked'
p207
sI118
S'        (it will be locked eventually anyway by the following UPDATE).'
p208
sI119
S'        """'
p209
sI120
S"        if attributes.get('for_update', False) and not 'cache' in attributes:"
p210
sI121
S"            self.execute('BEGIN IMMEDIATE TRANSACTION;')"
p211
sI122
S'        return super(SQLiteAdapter, self).select(query, fields, attributes)'
p212
sI123
S''
sI124
S''
sI125
S'SPATIALLIBS = {'
p213
sI126
S"    'Windows':'libspatialite',"
p214
ssg87
S"(self=<pydal.adapters.sqlite.SQLiteAdapter object>, query=<Query ((leituras.data_leitura <= '2015-11-03') AND (leituras.data_leitura >= '2015-10-27'))>, fields=[<pydal.objects.Field object>, <pydal.objects.Field object>, <pydal.objects.Field object>, <pydal.objects.Field object>, <pydal.objects.Field object>, <pydal.objects.Field object>], attributes={'distinct': <pydal.objects.Field object>})"
p215
sg89
g188
sa(dp216
g66
S'/home/wellington/SPIn/web2py/gluon/packages/dal/pydal/adapters/base.py'
p217
sg68
(dp218
S'fields'
p219
S'[<pydal.objects.Field object>, <pydal.objects.Field object>, <pydal.objects.Field object>, <pydal.objects.Field object>, <pydal.objects.Field object>, <pydal.objects.Field object>]'
p220
sS'self'
p221
S'<pydal.adapters.sqlite.SQLiteAdapter object>'
p222
sS'attributes'
p223
S"{'distinct': <pydal.objects.Field object>}"
p224
sS'self._select_aux'
p225
S'<bound method SQLiteAdapter._select_aux of <pydal.adapters.sqlite.SQLiteAdapter object>>'
p226
sS'sql'
p227
S'"SELECT DISTINCT ON (leituras.data_leitura) leitu...3\') AND (leituras.data_leitura >= \'2015-10-27\'));"'
p228
ssg74
I1258
sg75
(dp229
I1253
S'            return cache_model('
p230
sI1254
S'                key,'
p231
sI1255
S'                lambda self=self,args=args:self._select_aux(*args),'
p232
sI1256
S'                time_expire)'
p233
sI1257
S'        else:'
p234
sI1258
S'            return self._select_aux(sql,fields,attributes)'
p235
sI1259
S''
sI1260
S'    def iterselect(self, query, fields, attributes):'
p236
sI1261
S'        sql = self._select(query, fields, attributes)'
p237
sI1262
S"        cacheable = attributes.get('cacheable', False)"
p238
ssg87
S"(self=<pydal.adapters.sqlite.SQLiteAdapter object>, query=<Query ((leituras.data_leitura <= '2015-11-03') AND (leituras.data_leitura >= '2015-10-27'))>, fields=[<pydal.objects.Field object>, <pydal.objects.Field object>, <pydal.objects.Field object>, <pydal.objects.Field object>, <pydal.objects.Field object>, <pydal.objects.Field object>], attributes={'distinct': <pydal.objects.Field object>})"
p239
sg89
g188
sa(dp240
g66
S'/home/wellington/SPIn/web2py/gluon/packages/dal/pydal/adapters/base.py'
p241
sg68
(dp242
S'self'
p243
S'<pydal.adapters.sqlite.SQLiteAdapter object>'
p244
sS'self.execute'
p245
S'<bound method SQLiteAdapter.execute of <pydal.adapters.sqlite.SQLiteAdapter object>>'
p246
sS'sql'
p247
S'"SELECT DISTINCT ON (leituras.data_leitura) leitu...3\') AND (leituras.data_leitura >= \'2015-10-27\'));"'
p248
ssg74
I1215
sg75
(dp249
I1216
S'            rows = self._fetchall()'
p250
sI1217
S'        else:'
p251
sI1218
S'            if isinstance(cache, dict):'
p252
sI1219
S"                cache_model = cache['model']"
p253
sI1210
S''
sI1211
S'    def _select_aux(self, sql, fields, attributes):'
p254
sI1212
S'        args_get = attributes.get'
p255
sI1213
S"        cache = args_get('cache',None)"
p256
sI1214
S'        if not cache:'
p257
sI1215
S'            self.execute(sql)'
p258
ssg87
S'(self=<pydal.adapters.sqlite.SQLiteAdapter object>, sql="SELECT DISTINCT ON (leituras.data_leitura) leitu...3\') AND (leituras.data_leitura >= \'2015-10-27\'));", fields=[<pydal.objects.Field object>, <pydal.objects.Field object>, <pydal.objects.Field object>, <pydal.objects.Field object>, <pydal.objects.Field object>, <pydal.objects.Field object>], attributes={\'distinct\': <pydal.objects.Field object>})'
p259
sg89
S'_select_aux'
p260
sa(dp261
g66
S'/home/wellington/SPIn/web2py/gluon/packages/dal/pydal/adapters/base.py'
p262
sg68
(dp263
S'a'
S'("SELECT DISTINCT ON (leituras.data_leitura) leitu...3\') AND (leituras.data_leitura >= \'2015-10-27\'));",)'
p264
sS'self'
p265
S'<pydal.adapters.sqlite.SQLiteAdapter object>'
p266
sS'b'
g21
sS'self.log_execute'
p267
S'<bound method SQLiteAdapter.log_execute of <pydal.adapters.sqlite.SQLiteAdapter object>>'
p268
ssg74
I1350
sg75
(dp269
I1345
S'        self.db._timings.append((command,time.time()-t0))'
p270
sI1346
S'        del self.db._timings[:-TIMINGSSIZE]'
p271
sI1347
S'        return ret'
p272
sI1348
S''
sI1349
S'    def execute(self, *a, **b):'
p273
sI1350
S'        return self.log_execute(*a, **b)'
p274
sI1351
S''
sI1352
S'    def represent(self, obj, fieldtype):'
p275
sI1353
S'        field_is_type = fieldtype.startswith'
p276
sI1354
S'        if isinstance(obj, CALLABLETYPES):'
p277
ssg87
S'(self=<pydal.adapters.sqlite.SQLiteAdapter object>, *a=("SELECT DISTINCT ON (leituras.data_leitura) leitu...3\') AND (leituras.data_leitura >= \'2015-10-27\'));",), **b={})'
p278
sg89
S'execute'
p279
sa(dp280
g66
S'/home/wellington/SPIn/web2py/gluon/packages/dal/pydal/adapters/base.py'
p281
sg68
(dp282
S'a'
S'("SELECT DISTINCT ON (leituras.data_leitura) leitu...3\') AND (leituras.data_leitura >= \'2015-10-27\'));",)'
p283
sS'b'
g21
sS'self'
p284
S'<pydal.adapters.sqlite.SQLiteAdapter object>'
p285
sS'ret'
p286
g103
sS'self.cursor'
p287
S'<pysqlite2.dbapi2.Cursor object>'
p288
sS'command'
p289
S'"SELECT DISTINCT ON (leituras.data_leitura) leitu...3\') AND (leituras.data_leitura >= \'2015-10-27\'));"'
p290
sS'self.cursor.execute'
p291
S'<built-in method execute of pysqlite2.dbapi2.Cursor object>'
p292
ssg74
I1344
sg75
(dp293
I1344
S'        ret = self.cursor.execute(command, *a[1:], **b)'
p294
sI1345
S'        self.db._timings.append((command,time.time()-t0))'
p295
sI1346
S'        del self.db._timings[:-TIMINGSSIZE]'
p296
sI1347
S'        return ret'
p297
sI1348
S''
sI1339
S'            command = self.filter_sql_command(command)'
p298
sI1340
S'        if self.db._debug:'
p299
sI1341
S"            self.db.logger.debug('SQL: %s' % command)"
p300
sI1342
S'        self.db._lastsql = command'
p301
sI1343
S'        t0 = time.time()'
p302
ssg87
S'(self=<pydal.adapters.sqlite.SQLiteAdapter object>, *a=("SELECT DISTINCT ON (leituras.data_leitura) leitu...3\') AND (leituras.data_leitura >= \'2015-10-27\'));",), **b={})'
p303
sg89
S'log_execute'
p304
sasS'pyver'
p305
S'Python 2.7.9: /usr/bin/python (prefix: /usr)'
p306
sS'session'
p307
g61
(S's\xf2\x08\x00\x00<div><table><tr><td style="font-weight:bold;vertical-align:top;">auth</td><td style="vertical-align:top;">:</td><td><div><table><tr><td style="font-weight:bold;vertical-align:top;">expiration</td><td style="vertical-align:top;">:</td><td><div>3600</div></td></tr><tr><td style="font-weight:bold;vertical-align:top;">hmac_key</td><td style="vertical-align:top;">:</td><td><div>8cfae3fc-ac34-41f5-b830-8497f1b2412c</div></td></tr><tr><td style="font-weight:bold;vertical-align:top;">last_visit</td><td style="vertical-align:top;">:</td><td><div>datetime.datetime(2015, 11, 3, 15, 15, 27, 114490)</div></td></tr><tr><td style="font-weight:bold;vertical-align:top;">remember_me</td><td style="vertical-align:top;">:</td><td><div>False</div></td></tr><tr><td style="font-weight:bold;vertical-align:top;">user</td><td style="vertical-align:top;">:</td><td><div><table><tr><td style="font-weight:bold;vertical-align:top;">cidade</td><td style="vertical-align:top;">:</td><td><div>1L</div></td></tr><tr><td style="font-weight:bold;vertical-align:top;">email</td><td style="vertical-align:top;">:</td><td><div>wellicfaria@gmail.com</div></td></tr><tr><td style="font-weight:bold;vertical-align:top;">first_name</td><td style="vertical-align:top;">:</td><td><div>Wellington</div></td></tr><tr><td style="font-weight:bold;vertical-align:top;">id</td><td style="vertical-align:top;">:</td><td><div>1L</div></td></tr><tr><td style="font-weight:bold;vertical-align:top;">last_name</td><td style="vertical-align:top;">:</td><td><div>Faria</div></td></tr><tr><td style="font-weight:bold;vertical-align:top;">registration_id</td><td style="vertical-align:top;">:</td><td><div></div></td></tr><tr><td style="font-weight:bold;vertical-align:top;">registration_key</td><td style="vertical-align:top;">:</td><td><div></div></td></tr><tr><td style="font-weight:bold;vertical-align:top;">reset_password_key</td><td style="vertical-align:top;">:</td><td><div></div></td></tr></table></div></td></tr><tr><td style="font-weight:bold;vertical-align:top;">user_groups</td><td style="vertical-align:top;">:</td><td><div><table></table></div></td></tr></table></div></td></tr><tr><td style="font-weight:bold;vertical-align:top;">flash</td><td style="vertical-align:top;">:</td><td><div>None</div></td></tr></table></div>'
tRp308
sS'etype'
p309
S"<class 'pysqlite2.dbapi2.OperationalError'>"
p310
sS'date'
p311
S'Tue Nov  3 15:15:27 2015'
p312
sS'response'
p313
g61
(S's\xd0?\x00\x00<div><table><tr><td style="font-weight:bold;vertical-align:top;">body</td><td style="vertical-align:top;">:</td><td><div>&lt;cStringIO.StringO object at 0xad4f8ae0&gt;</div></td></tr><tr><td style="font-weight:bold;vertical-align:top;">cookies</td><td style="vertical-align:top;">:</td><td><div><table><tr><td style="font-weight:bold;vertical-align:top;">session_id_monitorart</td><td style="vertical-align:top;">:</td><td><div>127.0.0.1-6ccfeccf-9456-4dde-9846-9ff26e0fb504<table><tr><td style="font-weight:bold;vertical-align:top;">comment</td><td style="vertical-align:top;">:</td><td><div></div></td></tr><tr><td style="font-weight:bold;vertical-align:top;">domain</td><td style="vertical-align:top;">:</td><td><div></div></td></tr><tr><td style="font-weight:bold;vertical-align:top;">expires</td><td style="vertical-align:top;">:</td><td><div></div></td></tr><tr><td style="font-weight:bold;vertical-align:top;">httponly</td><td style="vertical-align:top;">:</td><td><div></div></td></tr><tr><td style="font-weight:bold;vertical-align:top;">max-age</td><td style="vertical-align:top;">:</td><td><div></div></td></tr><tr><td style="font-weight:bold;vertical-align:top;">path</td><td style="vertical-align:top;">:</td><td><div>/</div></td></tr><tr><td style="font-weight:bold;vertical-align:top;">secure</td><td style="vertical-align:top;">:</td><td><div></div></td></tr><tr><td style="font-weight:bold;vertical-align:top;">version</td><td style="vertical-align:top;">:</td><td><div></div></td></tr></table></div></td></tr></table></div></td></tr><tr><td style="font-weight:bold;vertical-align:top;">delimiters</td><td style="vertical-align:top;">:</td><td><div><table><tr><td><div>{{</div></td></tr><tr><td><div>}}</div></td></tr></table></div></td></tr><tr><td style="font-weight:bold;vertical-align:top;">files</td><td style="vertical-align:top;">:</td><td><div><table></table></div></td></tr><tr><td style="font-weight:bold;vertical-align:top;">flash</td><td style="vertical-align:top;">:</td><td><div>Logged in</div></td></tr><tr><td style="font-weight:bold;vertical-align:top;">form_label_separator</td><td style="vertical-align:top;">:</td><td><div></div></td></tr><tr><td style="font-weight:bold;vertical-align:top;">formstyle</td><td style="vertical-align:top;">:</td><td><div>bootstrap3_inline</div></td></tr><tr><td style="font-weight:bold;vertical-align:top;">generic_patterns</td><td style="vertical-align:top;">:</td><td><div><table><tr><td><div>*</div></td></tr></table></div></td></tr><tr><td style="font-weight:bold;vertical-align:top;">google_analytics_id</td><td style="vertical-align:top;">:</td><td><div>None</div></td></tr><tr><td style="font-weight:bold;vertical-align:top;">headers</td><td style="vertical-align:top;">:</td><td><div><table><tr><td style="font-weight:bold;vertical-align:top;">X-Powered-By</td><td style="vertical-align:top;">:</td><td><div>web2py</div></td></tr></table></div></td></tr><tr><td style="font-weight:bold;vertical-align:top;">logo</td><td style="vertical-align:top;">:</td><td><div><a class="navbar-brand" href="http://www.web2py.com/" id="web2py-logo"><b>web<span>2</span>py</b>&trade;&nbsp;</a></div></td></tr><tr><td style="font-weight:bold;vertical-align:top;">menu</td><td style="vertical-align:top;">:</td><td><div><table><tr><td><div><table><tr><td><div>Home</div></td></tr><tr><td><div>False</div></td></tr><tr><td><div>/monitorart/default/index</div></td></tr><tr><td><div><table></table></div></td></tr></table></div></td></tr><tr><td><div><table><tr><td><div>My Sites</div></td></tr><tr><td><div>False</div></td></tr><tr><td><div>/admin/default/site</div></td></tr></table></div></td></tr><tr><td><div><table><tr><td><div>This App</div></td></tr><tr><td><div>False</div></td></tr><tr><td><div>#</div></td></tr><tr><td><div><table><tr><td><div><table><tr><td><div>Design</div></td></tr><tr><td><div>False</div></td></tr><tr><td><div>/admin/default/design/monitorart</div></td></tr></table></div></td></tr><tr><td><div><li class="divider"></li></div></td></tr><tr><td><div><table><tr><td><div>Controller</div></td></tr><tr><td><div>False</div></td></tr><tr><td><div>/admin/default/edit/monitorart/controllers/default.py</div></td></tr></table></div></td></tr><tr><td><div><table><tr><td><div>View</div></td></tr><tr><td><div>False</div></td></tr><tr><td><div>/admin/default/edit/monitorart/views/default/portal.html</div></td></tr></table></div></td></tr><tr><td><div><table><tr><td><div>DB Model</div></td></tr><tr><td><div>False</div></td></tr><tr><td><div>/admin/default/edit/monitorart/models/db.py</div></td></tr></table></div></td></tr><tr><td><div><table><tr><td><div>Menu Model</div></td></tr><tr><td><div>False</div></td></tr><tr><td><div>/admin/default/edit/monitorart/models/menu.py</div></td></tr></table></div></td></tr><tr><td><div><table><tr><td><div>Config.ini</div></td></tr><tr><td><div>False</div></td></tr><tr><td><div>/admin/default/edit/monitorart/private/appconfig.ini</div></td></tr></table></div></td></tr><tr><td><div><table><tr><td><div>Layout</div></td></tr><tr><td><div>False</div></td></tr><tr><td><div>/admin/default/edit/monitorart/views/layout.html</div></td></tr></table></div></td></tr><tr><td><div><table><tr><td><div>Stylesheet</div></td></tr><tr><td><div>False</div></td></tr><tr><td><div>/admin/default/edit/monitorart/static/css/web2py-bootstrap3.css</div></td></tr></table></div></td></tr><tr><td><div><table><tr><td><div>Database</div></td></tr><tr><td><div>False</div></td></tr><tr><td><div>/monitorart/appadmin/index</div></td></tr></table></div></td></tr><tr><td><div><table><tr><td><div>Errors</div></td></tr><tr><td><div>False</div></td></tr><tr><td><div>/admin/default/errors/monitorart</div></td></tr></table></div></td></tr><tr><td><div><table><tr><td><div>About</div></td></tr><tr><td><div>False</div></td></tr><tr><td><div>/admin/default/about/monitorart</div></td></tr></table></div></td></tr></table></div></td></tr></table></div></td></tr><tr><td><div><table><tr><td><div>web2py.com</div></td></tr><tr><td><div>False</div></td></tr><tr><td><div>#</div></td></tr><tr><td><div><table><tr><td><div><table><tr><td><div>Download</div></td></tr><tr><td><div>False</div></td></tr><tr><td><div>http://www.web2py.com/examples/default/download</div></td></tr></table></div></td></tr><tr><td><div><table><tr><td><div>Support</div></td></tr><tr><td><div>False</div></td></tr><tr><td><div>http://www.web2py.com/examples/default/support</div></td></tr></table></div></td></tr><tr><td><div><table><tr><td><div>Demo</div></td></tr><tr><td><div>False</div></td></tr><tr><td><div>http://web2py.com/demo_admin</div></td></tr></table></div></td></tr><tr><td><div><table><tr><td><div>Quick Examples</div></td></tr><tr><td><div>False</div></td></tr><tr><td><div>http://web2py.com/examples/default/examples</div></td></tr></table></div></td></tr><tr><td><div><table><tr><td><div>FAQ</div></td></tr><tr><td><div>False</div></td></tr><tr><td><div>http://web2py.com/AlterEgo</div></td></tr></table></div></td></tr><tr><td><div><table><tr><td><div>Videos</div></td></tr><tr><td><div>False</div></td></tr><tr><td><div>http://www.web2py.com/examples/default/videos/</div></td></tr></table></div></td></tr><tr><td><div><table><tr><td><div>Free Applications</div></td></tr><tr><td><div>False</div></td></tr><tr><td><div>http://web2py.com/appliances</div></td></tr></table></div></td></tr><tr><td><div><table><tr><td><div>Plugins</div></td></tr><tr><td><div>False</div></td></tr><tr><td><div>http://web2py.com/plugins</div></td></tr></table></div></td></tr><tr><td><div><table><tr><td><div>Recipes</div></td></tr><tr><td><div>False</div></td></tr><tr><td><div>http://web2pyslices.com/</div></td></tr></table></div></td></tr></table></div></td></tr></table></div></td></tr><tr><td><div><table><tr><td><div>Documentation</div></td></tr><tr><td><div>False</div></td></tr><tr><td><div>#</div></td></tr><tr><td><div><table><tr><td><div><table><tr><td><div>Online book</div></td></tr><tr><td><div>False</div></td></tr><tr><td><div>http://www.web2py.com/book</div></td></tr></table></div></td></tr><tr><td><div><li class="divider"></li></div></td></tr><tr><td><div><table><tr><td><div>Preface</div></td></tr><tr><td><div>False</div></td></tr><tr><td><div>http://www.web2py.com/book/default/chapter/00</div></td></tr></table></div></td></tr><tr><td><div><table><tr><td><div>Introduction</div></td></tr><tr><td><div>False</div></td></tr><tr><td><div>http://www.web2py.com/book/default/chapter/01</div></td></tr></table></div></td></tr><tr><td><div><table><tr><td><div>Python</div></td></tr><tr><td><div>False</div></td></tr><tr><td><div>http://www.web2py.com/book/default/chapter/02</div></td></tr></table></div></td></tr><tr><td><div><table><tr><td><div>Overview</div></td></tr><tr><td><div>False</div></td></tr><tr><td><div>http://www.web2py.com/book/default/chapter/03</div></td></tr></table></div></td></tr><tr><td><div><table><tr><td><div>The Core</div></td></tr><tr><td><div>False</div></td></tr><tr><td><div>http://www.web2py.com/book/default/chapter/04</div></td></tr></table></div></td></tr><tr><td><div><table><tr><td><div>The Views</div></td></tr><tr><td><div>False</div></td></tr><tr><td><div>http://www.web2py.com/book/default/chapter/05</div></td></tr></table></div></td></tr><tr><td><div><table><tr><td><div>Database</div></td></tr><tr><td><div>False</div></td></tr><tr><td><div>http://www.web2py.com/book/default/chapter/06</div></td></tr></table></div></td></tr><tr><td><div><table><tr><td><div>Forms and Validators</div></td></tr><tr><td><div>False</div></td></tr><tr><td><div>http://www.web2py.com/book/default/chapter/07</div></td></tr></table></div></td></tr><tr><td><div><table><tr><td><div>Email and SMS</div></td></tr><tr><td><div>False</div></td></tr><tr><td><div>http://www.web2py.com/book/default/chapter/08</div></td></tr></table></div></td></tr><tr><td><div><table><tr><td><div>Access Control</div></td></tr><tr><td><div>False</div></td></tr><tr><td><div>http://www.web2py.com/book/default/chapter/09</div></td></tr></table></div></td></tr><tr><td><div><table><tr><td><div>Services</div></td></tr><tr><td><div>False</div></td></tr><tr><td><div>http://www.web2py.com/book/default/chapter/10</div></td></tr></table></div></td></tr><tr><td><div><table><tr><td><div>Ajax Recipes</div></td></tr><tr><td><div>False</div></td></tr><tr><td><div>http://www.web2py.com/book/default/chapter/11</div></td></tr></table></div></td></tr><tr><td><div><table><tr><td><div>Components and Plugins</div></td></tr><tr><td><div>False</div></td></tr><tr><td><div>http://www.web2py.com/book/default/chapter/12</div></td></tr></table></div></td></tr><tr><td><div><table><tr><td><div>Deployment Recipes</div></td></tr><tr><td><div>False</div></td></tr><tr><td><div>http://www.web2py.com/book/default/chapter/13</div></td></tr></table></div></td></tr><tr><td><div><table><tr><td><div>Other Recipes</div></td></tr><tr><td><div>False</div></td></tr><tr><td><div>http://www.web2py.com/book/default/chapter/14</div></td></tr></table></div></td></tr><tr><td><div><table><tr><td><div>Helping web2py</div></td></tr><tr><td><div>False</div></td></tr><tr><td><div>http://www.web2py.com/book/default/chapter/15</div></td></tr></table></div></td></tr><tr><td><div><table><tr><td><div>Buy web2py\'s book</div></td></tr><tr><td><div>False</div></td></tr><tr><td><div>http://stores.lulu.com/web2py</div></td></tr></table></div></td></tr></table></div></td></tr></table></div></td></tr><tr><td><div><table><tr><td><div>Community</div></td></tr><tr><td><div>False</div></td></tr><tr><td><div>None</div></td></tr><tr><td><div><table><tr><td><div><table><tr><td><div>Groups</div></td></tr><tr><td><div>False</div></td></tr><tr><td><div>http://www.web2py.com/examples/default/usergroups</div></td></tr></table></div></td></tr><tr><td><div><table><tr><td><div>Twitter</div></td></tr><tr><td><div>False</div></td></tr><tr><td><div>http://twitter.com/web2py</div></td></tr></table></div></td></tr><tr><td><div><table><tr><td><div>Live Chat</div></td></tr><tr><td><div>False</div></td></tr><tr><td><div>http://webchat.freenode.net/?channels=web2py</div></td></tr></table></div></td></tr></table></div></td></tr></table></div></td></tr></table></div></td></tr><tr><td style="font-weight:bold;vertical-align:top;">meta</td><td style="vertical-align:top;">:</td><td><div><table><tr><td style="font-weight:bold;vertical-align:top;">author</td><td style="vertical-align:top;">:</td><td><div>Your Name &lt;you@example.com&gt;</div></td></tr><tr><td style="font-weight:bold;vertical-align:top;">description</td><td style="vertical-align:top;">:</td><td><div>a cool new app</div></td></tr><tr><td style="font-weight:bold;vertical-align:top;">generator</td><td style="vertical-align:top;">:</td><td><div>Web2py Web Framework</div></td></tr><tr><td style="font-weight:bold;vertical-align:top;">keywords</td><td style="vertical-align:top;">:</td><td><div>web2py, python, framework</div></td></tr></table></div></td></tr><tr><td style="font-weight:bold;vertical-align:top;">models_to_run</td><td style="vertical-align:top;">:</td><td><div><table><tr><td><div>^\\w+\\.py$</div></td></tr><tr><td><div>^default/\\w+\\.py$</div></td></tr><tr><td><div>^default/portal/\\w+\\.py$</div></td></tr></table></div></td></tr><tr><td style="font-weight:bold;vertical-align:top;">postprocessing</td><td style="vertical-align:top;">:</td><td><div><table></table></div></td></tr><tr><td style="font-weight:bold;vertical-align:top;">session_client</td><td style="vertical-align:top;">:</td><td><div>127.0.0.1</div></td></tr><tr><td style="font-weight:bold;vertical-align:top;">session_cookie_compression_level</td><td style="vertical-align:top;">:</td><td><div>None</div></td></tr><tr><td style="font-weight:bold;vertical-align:top;">session_cookie_expires</td><td style="vertical-align:top;">:</td><td><div>None</div></td></tr><tr><td style="font-weight:bold;vertical-align:top;">session_cookie_key</td><td style="vertical-align:top;">:</td><td><div>None</div></td></tr><tr><td style="font-weight:bold;vertical-align:top;">session_data_name</td><td style="vertical-align:top;">:</td><td><div>session_data_monitorart</div></td></tr><tr><td style="font-weight:bold;vertical-align:top;">session_file</td><td style="vertical-align:top;">:</td><td><div>&lt;open file &#x27;/home/wellington/SPIn/web2py/applications/monitorart/sessions/093/0e9/127.0.0.1-6ccfeccf-9456-4dde-9846-9ff26e0fb504&#x27;, mode &#x27;rb+&#x27; at 0xad8fb7b0&gt;</div></td></tr><tr><td style="font-weight:bold;vertical-align:top;">session_filename</td><td style="vertical-align:top;">:</td><td><div>/home/wellington/SPIn/web2py/applications/monitorart/sessions/127.0.0.1-6ccfeccf-9456-4dde-9846-9ff26e0fb504</div></td></tr><tr><td style="font-weight:bold;vertical-align:top;">session_hash</td><td style="vertical-align:top;">:</td><td><div>2ad3c0ed422d3c2b977fdabf557f1324</div></td></tr><tr><td style="font-weight:bold;vertical-align:top;">session_id</td><td style="vertical-align:top;">:</td><td><div>127.0.0.1-6ccfeccf-9456-4dde-9846-9ff26e0fb504</div></td></tr><tr><td style="font-weight:bold;vertical-align:top;">session_id_name</td><td style="vertical-align:top;">:</td><td><div>session_id_monitorart</div></td></tr><tr><td style="font-weight:bold;vertical-align:top;">session_locked</td><td style="vertical-align:top;">:</td><td><div>True</div></td></tr><tr><td style="font-weight:bold;vertical-align:top;">session_masterapp</td><td style="vertical-align:top;">:</td><td><div>monitorart</div></td></tr><tr><td style="font-weight:bold;vertical-align:top;">session_new</td><td style="vertical-align:top;">:</td><td><div>False</div></td></tr><tr><td style="font-weight:bold;vertical-align:top;">session_storage_type</td><td style="vertical-align:top;">:</td><td><div>file</div></td></tr><tr><td style="font-weight:bold;vertical-align:top;">status</td><td style="vertical-align:top;">:</td><td><div>200</div></td></tr><tr><td style="font-weight:bold;vertical-align:top;">subtitle</td><td style="vertical-align:top;">:</td><td><div></div></td></tr><tr><td style="font-weight:bold;vertical-align:top;">title</td><td style="vertical-align:top;">:</td><td><div>Monitorart</div></td></tr><tr><td style="font-weight:bold;vertical-align:top;">view</td><td style="vertical-align:top;">:</td><td><div>default/portal.html</div></td></tr></table></div>'
tRp314
sS'locals'
p315
(dp316
S'a'
S'("SELECT DISTINCT ON (leituras.data_leitura) leitu...3\') AND (leituras.data_leitura >= \'2015-10-27\'));",)'
p317
sS'self'
p318
S'<pydal.adapters.sqlite.SQLiteAdapter object>'
p319
sS'b'
g21
sS'command'
p320
S'"SELECT DISTINCT ON (leituras.data_leitura) leitu...3\') AND (leituras.data_leitura >= \'2015-10-27\'));"'
p321
sS't0'
p322
S'1446570927.451657'
p323
sssS'traceback'
p324
S'Traceback (most recent call last):\n  File "/home/wellington/SPIn/web2py/gluon/restricted.py", line 227, in restricted\n    exec ccode in environment\n  File "/home/wellington/SPIn/web2py/applications/monitorart/controllers/default.py", line 196, in <module>\n  File "/home/wellington/SPIn/web2py/gluon/globals.py", line 412, in <lambda>\n    self._caller = lambda f: f()\n  File "/home/wellington/SPIn/web2py/gluon/tools.py", line 3583, in f\n    return action(*a, **b)\n  File "/home/wellington/SPIn/web2py/applications/monitorart/controllers/default.py", line 44, in portal\n    datas_de_leituras= db((db.leituras.data_leitura<=atual) & (db.leituras.data_leitura>=final) ).select(distinct=db.leituras.data_leitura)\n  File "/home/wellington/SPIn/web2py/gluon/packages/dal/pydal/objects.py", line 1986, in select\n    return adapter.select(self.query,fields,attributes)\n  File "/home/wellington/SPIn/web2py/gluon/packages/dal/pydal/adapters/sqlite.py", line 122, in select\n    return super(SQLiteAdapter, self).select(query, fields, attributes)\n  File "/home/wellington/SPIn/web2py/gluon/packages/dal/pydal/adapters/base.py", line 1258, in select\n    return self._select_aux(sql,fields,attributes)\n  File "/home/wellington/SPIn/web2py/gluon/packages/dal/pydal/adapters/base.py", line 1215, in _select_aux\n    self.execute(sql)\n  File "/home/wellington/SPIn/web2py/gluon/packages/dal/pydal/adapters/base.py", line 1350, in execute\n    return self.log_execute(*a, **b)\n  File "/home/wellington/SPIn/web2py/gluon/packages/dal/pydal/adapters/base.py", line 1344, in log_execute\n    ret = self.cursor.execute(command, *a[1:], **b)\nOperationalError: near "ON": syntax error\n'
p325
s.