(dp1
S'output'
p2
S"<type 'exceptions.SyntaxError'> invalid syntax (index.html, line 8)"
p3
sS'layer'
p4
S'/home/wellington/SPIn/web2py/applications/monitorart/views/default/index.html'
p5
sS'code'
p6
S'response.write(\'<!DOCTYPE html>\\n<html lang="en">\\n\\n<head>\\n\\n    <meta charset="utf-8">\\n    <meta http-equiv="X-UA-Compatible" content="IE=edge">\\n    <meta name="viewport" content="width=device-width, initial-scale=1">\\n    <meta name="description" content="">\\n    <meta name="author" content="">\\n\\n    <title>MonitorAR</title>\\n\\n    <!-- Bootstrap Core CSS -->\\n    <link href="\', escape=False)\nresponse.write(URL(\'static\',\'css/bootstrap.min.css\'))\nresponse.write(\'" rel="stylesheet">\\n\\n    <!-- Custom CSS -->\\n    <link href="\', escape=False)\nresponse.write(URL(\'static\',\'css/agency.css\'))\nresponse.write(\'" rel="stylesheet">\\n\\n    <!-- Custom Fonts -->\\n    <link href="\', escape=False)\nresponse.write(URL(\'static\',\'font-awesome/css/font-awesome.min.css\'))\nresponse.write(\'" rel="stylesheet" type="text/css">\\n    <link href="https://fonts.googleapis.com/css?family=Montserrat:400,700" rel="stylesheet" type="text/css">\\n    <link href=\\\'https://fonts.googleapis.com/css?family=Kaushan+Script\\\' rel=\\\'stylesheet\\\' type=\\\'text/css\\\'>\\n    <link href=\\\'https://fonts.googleapis.com/css?family=Droid+Serif:400,700,400italic,700italic\\\' rel=\\\'stylesheet\\\' type=\\\'text/css\\\'>\\n    <link href=\\\'https://fonts.googleapis.com/css?family=Roboto+Slab:400,100,300,700\\\' rel=\\\'stylesheet\\\' type=\\\'text/css\\\'>\\n\\n    <!-- HTML5 Shim and Respond.js IE8 support of HTML5 elements and media queries -->\\n    <!-- WARNING: Respond.js doesn\\\'t work if you view the page via file:// -->\\n    <!--[if lt IE 9]>\\n        <script src="https://oss.maxcdn.com/libs/html5shiv/3.7.0/html5shiv.js"></script>\\n        <script src="https://oss.maxcdn.com/libs/respond.js/1.4.2/respond.min.js"></script>\\n    <![endif]-->\\n\\n</head>\\n\\n<body id="page-top" class="index">\\n\', escape=False)\n<!-- Navigation -->\n<nav class="navbar navbar-default navbar-fixed-top">\n<div class="container">\n<!-- Brand and toggle get grouped for better mobile display -->\n<div class="navbar-header page-scroll">\n<button type="button" class="navbar-toggle" data-toggle="collapse" data-target="#bs-example-navbar-collapse-1">\n<span class="sr-only">Toggle navigation</span>\n<span class="icon-bar"></span>\n<span class="icon-bar"></span>\n<span class="icon-bar"></span>\n</button>\n<a class="navbar-brand page-scroll" href="#page-top">MonitorAR</a>\n</div>\n<!-- Collect the nav links, forms, and other content for toggling -->\n<div class="collapse navbar-collapse" id="bs-example-navbar-collapse-1">\n<ul class="nav navbar-nav navbar-right">\n<li class="hidden">\n<a href="#page-top"></a>\n</li>\n<li>\n<a class="page-scroll" href="#services">Servi\xc3\xa7os</a>\n</li>\n<li>\n<a class="page-scroll" href="#about">Sinais e Sintomas</a>\n</li>\n<li>\n<a class="page-scroll" href="#team">Equipe</a>\n</li>\n<li>\n<a class="page-scroll" href="#contact">Contato</a>\n</li>\n<li>\n<a class="page-scroll" href\nresponse.write("{{=URL(c=\'default\',f=\'user\')}}", escape=False)\nLogin</a>\n</li>\n</ul>\n</div>\n<!-- /.navbar-collapse -->\n</div>\n<!-- /.container-fluid -->\n</nav>\n<!-- Header -->\n<header>\n<div class="container">\n<div class="intro-text">\n<div class="intro-lead-in">Bem vindo ao MonitorAR!</div>\n<div class="intro-heading">Estamos monitorando o ar que voc\xc3\xaa respira!</div>\n<a href\nresponse.write("{{=URL(c=\'default\',f=\'user\', args=[\'register\'])}}", escape=False)\nclass="page-scroll btn btn-xl">Crie sua Conta!</a>\n</div>\n</div>\n</header>\n<!-- Services Section -->\n<section id="services">\n<div class="container">\n<div class="row">\n<div class="col-lg-12 text-center">\n<h2 class="section-heading">Servi\xc3\xa7os</h2>\n<h3 class="section-subheading text-muted">O que fazemos?</h3>\n</div>\n</div>\n<div class="row text-center">\n<div class="col-md-4">\n<span class="fa-stack fa-4x">\n<i class="glyphicon glyphicon-pushpin text-primary"></i>\n</span>\n<h4 class="service-heading">Mapeamos</h4>\n<p class="text-muted">Mapeamento dos locais com maior emiss\xc3\xa3o de CO, CO\xc2\xb2 e Metano.</p>\n</div>\n<div class="col-md-4">\n<span class="fa-stack fa-4x">\n<i class="glyphicon glyphicon-bullhorn text-primary"></i>\n</span>\n<h4 class="service-heading">Alertamos</h4>\n<p class="text-muted">Alertamos as autoridades respons\xc3\xa1veis para averigua\xc3\xa7\xc3\xa3o de irregularidades.</p>\n</div>\n<div class="col-md-4">\n<span class="fa-stack fa-4x">\n<i class="glyphicon glyphicon-scale text-primary"></i>\n</span>\n<h4 class="service-heading">Medimos</h4>\n<p class="text-muted">Medimos as quantidade de emiss\xc3\xa3o de CO, CO\xc2\xb2 e Metano.</p>\n</div>\n</div>\n</div>\n</section>\n<!-- About Section -->\n<section id="about">\n<div class="container">\n<div class="row">\n<div class="col-lg-12 text-center">\n<h2 class="section-heading">Sinais e Sintomas</h2>\n<h3 class="section-subheading text-muted">Sinais e sintomas relacionados \xc3\xa0 polui\xc3\xa7\xc3\xa3o do ar</h3>\n</div>\n</div>\n<div class="row">\n<div class="col-lg-12">\n<ul class="timeline">\n<li>\n<div class="timeline-image">\n<img class="img-circle img-responsive" src\nresponse.write("{{=URL(\'static\',\'images/dc.jpg\')}}", escape=False)\nalt="">\n</div>\n<div class="timeline-panel">\n<div class="timeline-heading">\n<h4>Dor de cabe\xc3\xa7a</h4>\n</div>\n<div class="timeline-body">\n<p class="text-muted">Dor de cabe\xc3\xa7a \xc3\xa9 a dor em qualquer regi\xc3\xa3o da cabe\xc3\xa7a. As dores de cabe\xc3\xa7a podem ocorrer em um ou em ambos os lados da cabe\xc3\xa7a, serem isoladas em determinada localiza\xc3\xa7\xc3\xa3o, irradiarem pela cabe\xc3\xa7a de um ponto ou a outro, serem latejantes ou uma sensa\xc3\xa7\xc3\xa3o de dor surda. As dores de cabe\xc3\xa7a podem aparecer gradualmente ou de repente, e podem durar menos de uma hora ou durante v\xc3\xa1rios dias. Pelo menos 63 milh\xc3\xb5es de brasileiros de todas as idades sofrem com dores de cabe\xc3\xa7a frequentes.</p>\n</div>\n</div>\n</li>\n<li class="timeline-inverted">\n<div class="timeline-image">\n<img class="img-circle img-responsive" src\nresponse.write("{{=URL(\'static\',\'images/dg.jpg\')}}", escape=False)\nalt="">\n</div>\n<div class="timeline-panel">\n<div class="timeline-heading">\n<h4>Dor, ard\xc3\xaancia na garganta e Ronqueira</h4>\n</div>\n<div class="timeline-body">\n<p class="text-muted">Dor de garganta \xc3\xa9 uma condi\xc3\xa7\xc3\xa3o de desconforto acompanhada de coceira e dor na garganta. A polui\xc3\xa7\xc3\xa3o do ar interior e exterior pode ser um fator causal dor de garganta. Moradores de \xc3\xa1reas industriais tendem a inalar ar contaminado com part\xc3\xadculas de poeira nocivas. Isso pode causar irrita\xc3\xa7\xc3\xa3o da garganta e sistema respirat\xc3\xb3rio.</p>\n</div>\n</div>\n</li>\n<li>\n<div class="timeline-image">\n<img class="img-circle img-responsive" src\nresponse.write("{{=URL(\'static\',\'images/ap.jpg\')}}", escape=False)\nalt="">\n</div>\n<div class="timeline-panel">\n<div class="timeline-heading">\n<h4>Ard\xc3\xaancia nos olhos, lacrimejamento, vermelhid\xc3\xa3o</h4>\n</div>\n<div class="timeline-body">\n<p class="text-muted">Um estudo divulgado em 2012 pela USP, em parceria com a Universidade Federal de S\xc3\xa3o Paulo (UNIFESP) e a universidade de Haward nos EUA, revelou como a polui\xc3\xa7\xc3\xa3o dos grandes centros urbanos prejudicam os trabalhadores que atuam rotineiramente no tr\xc3\xa2nsito. Assim, ap\xc3\xb3s quatro anos de pesquisa, os 70 motociclistas e os 30 funcion\xc3\xa1rios da Companhia de Engenharia de Tr\xc3\xa2nsito (CET) analisados, apresentaram algum tipo de inflama\xc3\xa7\xc3\xa3o e ard\xc3\xaancia nos olhos. A polui\xc3\xa7\xc3\xa3o atmosf\xc3\xa9rica pode acarretar outros problemas como S\xc3\xadndrome do Olho Seco, inflama\xc3\xa7\xc3\xa3o da C\xc3\xb3rnea e Conjuntivite T\xc3\xb3xica. </p>\n</div>\n</div>\n</li>\n<li class="timeline-inverted">\n<div class="timeline-image">\n<img class="img-circle img-responsive" src\nresponse.write("{{=URL(\'static\',\'images/to.jpg\')}}", escape=False)\nalt="">\n</div>\n<div class="timeline-panel">\n<div class="timeline-heading">\n<h4>Tosse</h4>\n</div>\n<div class="timeline-body">\n<p class="text-muted">A tosse \xc3\xa9 o primeiro sinal de que alguma coisa est\xc3\xa1 errada no nosso organismo. Ela tem o papel de, por exemplo, expulsar a poeira e a fuma\xc3\xa7a que est\xc3\xa3o irritando as vias a\xc3\xa9reas.</p>\n</div>\n</div>\n</li>\n<li>\n<div class="timeline-image">\n<img class="img-circle img-responsive" src\nresponse.write("{{=URL(\'static\',\'images/si.jpeg\')}}", escape=False)\nalt="">\n</div>\n<div class="timeline-panel">\n<div class="timeline-heading">\n<h4>Sibil\xc3\xa2ncia</h4>\n</div>\n<div class="timeline-body">\n<p class="text-muted">Existem poucas evid\xc3\xaancias sobre o papel da polui\xc3\xa7\xc3\xa3o do ar no desenvolvimento e desencadeamento de sibil\xc3\xa2ncia em crian\xc3\xa7as. Um estudo publicado em recente edi\xc3\xa7\xc3\xa3o do peri\xc3\xb3dico Thorax examinou o efeito da exposi\xc3\xa7\xc3\xa3o \xc3\xa0 polui\xc3\xa7\xc3\xa3o a\xc3\xa9rea sobre sintomas de sibil\xc3\xa2ncia em crian\xc3\xa7as menores de 3 anos de idade com susceptibilidade gen\xc3\xa9tica para asma. Segundo os resultados, foram observadas associa\xc3\xa7\xc3\xb5es positivas significativas entre concentra\xc3\xa7\xc3\xb5es de part\xc3\xadculas de di\xc3\xa2metro (PM10), di\xc3\xb3xido de nitrog\xc3\xaanio (NO2) e \xc3\xb3xido. </p>\n</div>\n</div>\n</li>\n<li class="timeline-inverted">\n<div class="timeline-image">\n<img class="img-circle img-responsive" src\nresponse.write("{{=URL(\'static\',\'images/fb.jpg\')}}", escape=False)\nalt="">\n</div>\n<div class="timeline-panel">\n<div class="timeline-heading">\n<h4>Febre</h4>\n</div>\n<div class="timeline-body">\n<p class="text-muted">Eleva\xc3\xa7\xc3\xa3o da temperatura do corpo humano para cima dos limites considerados normais (36 a 37,3 \xc2\xb0C), faixa (range) que compreende 95% da popula\xc3\xa7\xc3\xa3o sadia.</p>\n</div>\n</div>\n</li>\n<li>\n<div class="timeline-image">\n<img class="img-circle img-responsive" src\nresponse.write("{{=URL(\'static\',\'images/do.jpg\')}}", escape=False)\nalt="">\n</div>\n<div class="timeline-panel">\n<div class="timeline-heading">\n<h4>Dor de ouvido</h4>\n</div>\n<div class="timeline-body">\n<p class="text-muted">Dor de ouvido \xc3\xa9 mais comum em crian\xc3\xa7as do que em adultos. A dor de ouvido pode ser constante ou pode ir e vir. Ele pode surgir como uma sensa\xc3\xa7\xc3\xa3o de queima\xc3\xa7\xc3\xa3o, uma dor afiada ou ma\xc3\xa7ante.</p>\n</div>\n</div>\n</li>\n<li class="timeline-inverted">\n<div class="timeline-image">\n<h4>Fique\n<br>Alertamos!</h4>\n</div>\n</li>\n</ul>\n</div>\n</div>\n</div>\n</section>\n<!-- Team Section -->\n<section id="team" class="bg-light-gray">\n<div class="container">\n<div class="row">\n<div class="col-lg-12 text-center">\n<h2 class="section-heading">Equipe</h2>\n<h3 class="section-subheading text-muted">Reunir-se \xc3\xa9 um come\xc3\xa7o, permanecer juntos \xc3\xa9 um progresso, e trabalhar juntos \xc3\xa9 sucesso.</h3>\n</div>\n</div>\n<div class="row">\n<div class="col-sm-4">\n<div class="team-member">\n<img src\nresponse.write("{{=URL(\'static\',\'images/wellington.jpg\')}}", escape=False)\nclass="img-responsive img-circle" alt="" height="200" width="200">\n<h4>Wellington Faria</h4>\n<p class="text-muted">Estudante de Engenharia da Computa\xc3\xa7\xc3\xa3o  e Mestrando em Telecomunica\xc3\xa7\xc3\xb5es pelo Instituto Nacional de Telecomunica\xc3\xa7\xc3\xb5es; Professor Volunt\xc3\xa1rio de Algoritmo, C++ e Arduino no projeto Cas@viva e Cofundador da Startup SPIn - Solu\xc3\xa7\xc3\xb5es para o Agroneg\xc3\xb3cio. </p>\n<ul class="list-inline social-buttons">\n<li><a href="#"><i class="fa fa-twitter"></i></a>\n</li>\n<li><a href="https://www.facebook.com/wellingtoncf"><i class="fa fa-facebook"></i></a>\n</li>\n<li><a href="#"><i class="fa fa-linkedin"></i></a>\n</li>\n</ul>\n</div>\n</div>\n<div class="col-sm-4">\n<div class="team-member">\n<img src\nresponse.write("{{=URL(\'static\',\'images/marcelo.jpg\')}}", escape=False)\nclass="img-responsive img-circle" alt="" height="200" width="200">\n<h4>Marcelo Henrique</h4>\n<p class="text-muted">Graduando de Engenharia da Computa\xc3\xa7\xc3\xa3o e aluno do mestrado em Telecomunica\xc3\xa7\xc3\xb5es pelo INATEL - Instituto Nacional de Telecomunica\xc3\xa7\xc3\xb5es.Estagi\xc3\xa1rio do CSC Camargo Corr\xc3\xaaa na \xc3\xa1rea de projeto e opera\xc3\xa7\xc3\xa3o de redes de telecomunica\xc3\xa7\xc3\xb5es.</p>\n<ul class="list-inline social-buttons">\n<li><a href="#"><i class="fa fa-twitter"></i></a>\n</li>\n<li><a href="#"><i class="fa fa-facebook"></i></a>\n</li>\n<li><a href="#"><i class="fa fa-linkedin"></i></a>\n</li>\n</ul>\n</div>\n</div>\n<div class="col-sm-4">\n<div class="team-member">\n<img src\nresponse.write("{{=URL(\'static\',\'images/jessica.jpg\')}}", escape=False)\nclass="img-responsive img-circle" alt="" height="200" width="200">\n<h4>J\xc3\xa9ssica Amaral</h4>\n<p class="text-muted">Estudante de Engenharia da Computa\xc3\xa7\xc3\xa3o pelo Instituto Nacional de Telecomunica\xc3\xa7\xc3\xb5es. Estagi\xc3\xa1ria no ICC - Treinamento, tutora do curso EaD de desenvolvimento Web front-end e participante do projeto OSS de redes de telecomunica\xc3\xa7\xc3\xb5es. Apaixonada por tecnologia e inova\xc3\xa7\xc3\xa3o e adora assistir filmes e s\xc3\xa9ries.</p>\n<ul class="list-inline social-buttons">\n<li><a href="#"><i class="fa fa-twitter"></i></a>\n</li>\n<li><a href="#"><i class="fa fa-facebook"></i></a>\n</li>\n<li><a href="#"><i class="fa fa-linkedin"></i></a>\n</li>\n</ul>\n</div>\n</div>\n<div class="col-sm-4">\n<div class="team-member">\n<img src\nresponse.write("{{=URL(\'static\',\'images/renzo.jpg\')}}", escape=False)\nclass="img-responsive img-circle" alt="" height="200" width="200">\n<h4>Renzo Mesquita</h4>\n<p class="text-muted">Professor pelo Inatel</p>\n<ul class="list-inline social-buttons">\n<li><a href="#"><i class="fa fa-twitter"></i></a>\n</li>\n<li><a href="#"><i class="fa fa-facebook"></i></a>\n</li>\n<li><a href="#"><i class="fa fa-linkedin"></i></a>\n</li>\n</ul>\n</div>\n</div>\n<div class="col-sm-4">\n<div class="team-member">\n<img src\nresponse.write("{{=URL(\'static\',\'images/felipe.jpg\')}}", escape=False)\nclass="img-responsive img-circle" alt="" height="200" width="200">\n<h4>Felipe Estevam</h4>\n<p class="text-muted">Graduando de Engenharia da Computa\xc3\xa7\xc3\xa3o e Monitor no Instituto Nacional de Telecomunica\xc3\xa7\xc3\xb5es. Atua como Freelancer no desenvolvimento de  projetos de hardware e firmware para sistemas embarcados.</p>\n<ul class="list-inline social-buttons">\n<li><a href="#"><i class="fa fa-twitter"></i></a>\n</li>\n<li><a href="#"><i class="fa fa-facebook"></i></a>\n</li>\n<li><a href="#"><i class="fa fa-linkedin"></i></a>\n</li>\n</ul>\n</div>\n</div>\n</div>\n<div class="row">\n<div class="col-lg-8 col-lg-offset-2 text-center">\n<p class="large text-muted">Lorem ipsum dolor sit amet, consectetur adipisicing elit. Aut eaque, laboriosam veritatis, quos non quis ad perspiciatis, totam corporis ea, alias ut unde.</p>\n</div>\n</div>\n</div>\n</section>\n<!-- Clients Aside -->\n<aside class="clients">\n<div class="container">\n<div class="row">\n<div class="col-md-3 col-sm-6">\n<a href="#">\n<img src="http://www.inatel.br/home/images/stories/inatel/Logoinatel.gif" class="img-responsive img-centered" alt="">\n</a>\n</div>\n</div>\n</div>\n</aside>\n<!-- Contact Section -->\n<section id="contact">\n<div class="container">\n<div class="row">\n<div class="col-lg-12 text-center">\n<h2 class="section-heading">Contato</h2>\n<h3 class="section-subheading text-muted">\xc3\x89 um prazer conhecer voc\xc3\xaa.</h3>\n</div>\n</div>\n<div class="row">\n<div class="col-lg-12">\n<form name="sentMessage" id="contactForm" novalidate>\n<div class="row">\n<div class="col-md-6">\n<div class="form-group">\n<input type="text" class="form-control" placeholder="Your Name *" id="name" required data-validation-required-message="Please enter your name.">\n<p class="help-block text-danger"></p>\n</div>\n<div class="form-group">\n<input type="email" class="form-control" placeholder="Your Email *" id="email" required data-validation-required-message="Please enter your email address.">\n<p class="help-block text-danger"></p>\n</div>\n<div class="form-group">\n<input type="tel" class="form-control" placeholder="Your Phone *" id="phone" required data-validation-required-message="Please enter your phone number.">\n<p class="help-block text-danger"></p>\n</div>\n</div>\n<div class="col-md-6">\n<div class="form-group">\n<textarea class="form-control" placeholder="Your Message *" id="message" required data-validation-required-message="Please enter a message."></textarea>\n<p class="help-block text-danger"></p>\n</div>\n</div>\n<div class="clearfix"></div>\n<div class="col-lg-12 text-center">\n<div id="success"></div>\n<button type="submit" class="btn btn-xl">Enviar Mensagem</button>\n</div>\n</div>\n</form>\n</div>\n</div>\n</div>\n</section>\n<footer>\n<div class="container">\n<div class="row">\n<div class="col-md-4">\n<span class="copyright">Copyright &copy; Your Website 2014</span>\n</div>\n<div class="col-md-4">\n<ul class="list-inline social-buttons">\n<li><a href="#"><i class="fa fa-twitter"></i></a>\n</li>\n<li><a href="#"><i class="fa fa-facebook"></i></a>\n</li>\n<li><a href="#"><i class="fa fa-linkedin"></i></a>\n</li>\n</ul>\n</div>\n<div class="col-md-4">\n<ul class="list-inline quicklinks">\n<li><a href="#">Privacy Policy</a>\n</li>\n<li><a href="#">Terms of Use</a>\n</li>\n</ul>\n</div>\n</div>\n</div>\n</footer>\n<!-- Portfolio Modals -->\n<!-- Use the modals below to showcase details about your portfolio projects! -->\n<!-- Portfolio Modal 1 -->\n<div class="portfolio-modal modal fade" id="portfolioModal1" tabindex="-1" role="dialog" aria-hidden="true">\n<div class="modal-content">\n<div class="close-modal" data-dismiss="modal">\n<div class="lr">\n<div class="rl">\n</div>\n</div>\n</div>\n<div class="container">\n<div class="row">\n<div class="col-lg-8 col-lg-offset-2">\n<div class="modal-body">\n<!-- Project Details Go Here -->\n<h2>Project Name</h2>\n<p class="item-intro text-muted">Lorem ipsum dolor sit amet consectetur.</p>\n<img class="img-responsive img-centered" src="img/portfolio/roundicons-free.png" alt="">\n<p>Use this area to describe your project. Lorem ipsum dolor sit amet, consectetur adipisicing elit. Est blanditiis dolorem culpa incidunt minus dignissimos deserunt repellat aperiam quasi sunt officia expedita beatae cupiditate, maiores repudiandae, nostrum, reiciendis facere nemo!</p>\n<p>\n<strong>Want these icons in this portfolio item sample?</strong>You can download 60 of them for free, courtesy of <a href="https://getdpd.com/cart/hoplink/18076?referrer=bvbo4kax5k8ogc">RoundIcons.com</a>, or you can purchase the 1500 icon set <a href="https://getdpd.com/cart/hoplink/18076?referrer=bvbo4kax5k8ogc">here</a>.</p>\n<ul class="list-inline">\n<li>Date: July 2014</li>\n<li>Client: Round Icons</li>\n<li>Category: Graphic Design</li>\n</ul>\n<button type="button" class="btn btn-primary" data-dismiss="modal"><i class="fa fa-times"></i> Close Project</button>\n</div>\n</div>\n</div>\n</div>\n</div>\n</div>\n<!-- Portfolio Modal 2 -->\n<div class="portfolio-modal modal fade" id="portfolioModal2" tabindex="-1" role="dialog" aria-hidden="true">\n<div class="modal-content">\n<div class="close-modal" data-dismiss="modal">\n<div class="lr">\n<div class="rl">\n</div>\n</div>\n</div>\n<div class="container">\n<div class="row">\n<div class="col-lg-8 col-lg-offset-2">\n<div class="modal-body">\n<h2>Project Heading</h2>\n<p class="item-intro text-muted">Lorem ipsum dolor sit amet consectetur.</p>\n<img class="img-responsive img-centered" src="img/portfolio/startup-framework-preview.png" alt="">\n<p><a href="http://designmodo.com/startup/?u=787">Startup Framework</a> is a website builder for professionals. Startup Framework contains components and complex blocks (PSD+HTML Bootstrap themes and templates) which can easily be integrated into almost any design. All of these components are made in the same style, and can easily be integrated into projects, allowing you to create hundreds of solutions for your future projects.</p>\n<p>You can preview Startup Framework <a href="http://designmodo.com/startup/?u=787">here</a>.</p>\n<button type="button" class="btn btn-primary" data-dismiss="modal"><i class="fa fa-times"></i> Close Project</button>\n</div>\n</div>\n</div>\n</div>\n</div>\n</div>\n<!-- Portfolio Modal 3 -->\n<div class="portfolio-modal modal fade" id="portfolioModal3" tabindex="-1" role="dialog" aria-hidden="true">\n<div class="modal-content">\n<div class="close-modal" data-dismiss="modal">\n<div class="lr">\n<div class="rl">\n</div>\n</div>\n</div>\n<div class="container">\n<div class="row">\n<div class="col-lg-8 col-lg-offset-2">\n<div class="modal-body">\n<!-- Project Details Go Here -->\n<h2>Project Name</h2>\n<p class="item-intro text-muted">Lorem ipsum dolor sit amet consectetur.</p>\n<img class="img-responsive img-centered" src="img/portfolio/treehouse-preview.png" alt="">\n<p>Treehouse is a free PSD web template built by <a href="https://www.behance.net/MathavanJaya">Mathavan Jaya</a>. This is bright and spacious design perfect for people or startup companies looking to showcase their apps or other projects.</p>\n<p>You can download the PSD template in this portfolio sample item at <a href="http://freebiesxpress.com/gallery/treehouse-free-psd-web-template/">FreebiesXpress.com</a>.</p>\n<button type="button" class="btn btn-primary" data-dismiss="modal"><i class="fa fa-times"></i> Close Project</button>\n</div>\n</div>\n</div>\n</div>\n</div>\n</div>\n<!-- Portfolio Modal 4 -->\n<div class="portfolio-modal modal fade" id="portfolioModal4" tabindex="-1" role="dialog" aria-hidden="true">\n<div class="modal-content">\n<div class="close-modal" data-dismiss="modal">\n<div class="lr">\n<div class="rl">\n</div>\n</div>\n</div>\n<div class="container">\n<div class="row">\n<div class="col-lg-8 col-lg-offset-2">\n<div class="modal-body">\n<!-- Project Details Go Here -->\n<h2>Project Name</h2>\n<p class="item-intro text-muted">Lorem ipsum dolor sit amet consectetur.</p>\n<img class="img-responsive img-centered" src="img/portfolio/golden-preview.png" alt="">\n<p>Start Bootstrap\'s Agency theme is based on Golden, a free PSD website template built by <a href="https://www.behance.net/MathavanJaya">Mathavan Jaya</a>. Golden is a modern and clean one page web template that was made exclusively for Best PSD Freebies. This template has a great portfolio, timeline, and meet your team sections that can be easily modified to fit your needs.</p>\n<p>You can download the PSD template in this portfolio sample item at <a href="http://freebiesxpress.com/gallery/golden-free-one-page-web-template/">FreebiesXpress.com</a>.</p>\n<button type="button" class="btn btn-primary" data-dismiss="modal"><i class="fa fa-times"></i> Close Project</button>\n</div>\n</div>\n</div>\n</div>\n</div>\n</div>\n<!-- Portfolio Modal 5 -->\n<div class="portfolio-modal modal fade" id="portfolioModal5" tabindex="-1" role="dialog" aria-hidden="true">\n<div class="modal-content">\n<div class="close-modal" data-dismiss="modal">\n<div class="lr">\n<div class="rl">\n</div>\n</div>\n</div>\n<div class="container">\n<div class="row">\n<div class="col-lg-8 col-lg-offset-2">\n<div class="modal-body">\n<!-- Project Details Go Here -->\n<h2>Project Name</h2>\n<p class="item-intro text-muted">Lorem ipsum dolor sit amet consectetur.</p>\n<img class="img-responsive img-centered" src="img/portfolio/escape-preview.png" alt="">\n<p>Escape is a free PSD web template built by <a href="https://www.behance.net/MathavanJaya">Mathavan Jaya</a>. Escape is a one page web template that was designed with agencies in mind. This template is ideal for those looking for a simple one page solution to describe your business and offer your services.</p>\n<p>You can download the PSD template in this portfolio sample item at <a href="http://freebiesxpress.com/gallery/escape-one-page-psd-web-template/">FreebiesXpress.com</a>.</p>\n<button type="button" class="btn btn-primary" data-dismiss="modal"><i class="fa fa-times"></i> Close Project</button>\n</div>\n</div>\n</div>\n</div>\n</div>\n</div>\n<!-- Portfolio Modal 6 -->\n<div class="portfolio-modal modal fade" id="portfolioModal6" tabindex="-1" role="dialog" aria-hidden="true">\n<div class="modal-content">\n<div class="close-modal" data-dismiss="modal">\n<div class="lr">\n<div class="rl">\n</div>\n</div>\n</div>\n<div class="container">\n<div class="row">\n<div class="col-lg-8 col-lg-offset-2">\n<div class="modal-body">\n<!-- Project Details Go Here -->\n<h2>Project Name</h2>\n<p class="item-intro text-muted">Lorem ipsum dolor sit amet consectetur.</p>\n<img class="img-responsive img-centered" src="img/portfolio/dreams-preview.png" alt="">\n<p>Dreams is a free PSD web template built by <a href="https://www.behance.net/MathavanJaya">Mathavan Jaya</a>. Dreams is a modern one page web template designed for almost any purpose. It\xe2\x80\x99s a beautiful template that\xe2\x80\x99s designed with the Bootstrap framework in mind.</p>\n<p>You can download the PSD template in this portfolio sample item at <a href="http://freebiesxpress.com/gallery/dreams-free-one-page-web-template/">FreebiesXpress.com</a>.</p>\n<button type="button" class="btn btn-primary" data-dismiss="modal"><i class="fa fa-times"></i> Close Project</button>\n</div>\n</div>\n</div>\n</div>\n</div>\n</div>\n<!-- jQuery -->\n<script src\nresponse.write("{{=URL(\'static\',\'js/jquery.js\')}}", escape=False)\n</script>\n<!-- Bootstrap Core JavaScript -->\n<script src\nresponse.write("{{=URL(\'static\',\'js/bootstrap.min.js\')}}", escape=False)\n</script>\n<!-- Plugin JavaScript -->\n<script src="http://cdnjs.cloudflare.com/ajax/libs/jquery-easing/1.3/jquery.easing.min.js\')}}"></script>\n<script src\nresponse.write("{{=URL(\'static\',\'js/classie.js\')}}", escape=False)\n</script>\n<script src\nresponse.write("{{=URL(\'static\',\'js/cbpAnimatedHeader.js\')}}", escape=False)\n</script>\n<!-- Contact Form JavaScript -->\n<script src\nresponse.write("{{=URL(\'static\',\'js/jqBootstrapValidation.js\')}}", escape=False)\n</script>\n<script src\nresponse.write("{{=URL(\'static\',\'js/contact_me.js\')}}", escape=False)\n</script>\n<!-- Custom Theme JavaScript -->\n<script src\nresponse.write("{{=URL(\'static\',\'\\tjs/agency.js\')}}", escape=False)\n</script>\n</body>\n</html'
p7
sS'snapshot'
p8
(dp9
S'exception'
p10
(dp11
S'__getslice__'
p12
S"<method-wrapper '__getslice__' of exceptions.SyntaxError object>"
p13
sS'text'
p14
S"'<!-- Navigation -->\\n'"
p15
sS'__str__'
p16
S"<method-wrapper '__str__' of exceptions.SyntaxError object>"
p17
sS'__reduce__'
p18
S'<built-in method __reduce__ of exceptions.SyntaxError object>'
p19
sS'__dict__'
p20
S'{}'
p21
sS'__sizeof__'
p22
S'<built-in method __sizeof__ of exceptions.SyntaxError object>'
p23
sS'__init__'
p24
S"<method-wrapper '__init__' of exceptions.SyntaxError object>"
p25
sS'__setattr__'
p26
S"<method-wrapper '__setattr__' of exceptions.SyntaxError object>"
p27
sS'__reduce_ex__'
p28
S'<built-in method __reduce_ex__ of exceptions.SyntaxError object>'
p29
sS'__new__'
p30
S'<built-in method __new__ of type object>'
p31
sS'__format__'
p32
S'<built-in method __format__ of exceptions.SyntaxError object>'
p33
sS'__class__'
p34
S"<type 'exceptions.SyntaxError'>"
p35
sS'filename'
p36
S"'/home/wellington/SPIn/web2py/applications/monitorart/views/default/index.html'"
p37
sS'lineno'
p38
S'8'
sS'msg'
p39
S"'invalid syntax'"
p40
sS'__doc__'
p41
S"'Invalid syntax.'"
p42
sS'__getitem__'
p43
S"<method-wrapper '__getitem__' of exceptions.SyntaxError object>"
p44
sS'__setstate__'
p45
S'<built-in method __setstate__ of exceptions.SyntaxError object>'
p46
sS'__getattribute__'
p47
S"<method-wrapper '__getattribute__' of exceptions.SyntaxError object>"
p48
sS'print_file_and_line'
p49
S'None'
p50
sS'args'
p51
S"('invalid syntax', ('/home/wellington/SPIn/web2py/applications/monitorart/views/default/index.html', 8, 1, '<!-- Navigation -->\\n'))"
p52
sS'__subclasshook__'
p53
S'<built-in method __subclasshook__ of type object>'
p54
sS'offset'
p55
S'1'
sS'__unicode__'
p56
S'<built-in method __unicode__ of exceptions.SyntaxError object>'
p57
sS'__delattr__'
p58
S"<method-wrapper '__delattr__' of exceptions.SyntaxError object>"
p59
sS'__repr__'
p60
S"<method-wrapper '__repr__' of exceptions.SyntaxError object>"
p61
sS'__hash__'
p62
S"<method-wrapper '__hash__' of exceptions.SyntaxError object>"
p63
ssS'evalue'
p64
S'invalid syntax (index.html, line 8)'
p65
sS'request'
p66
cgluon.html
XML_unpickle
p67
(S's\x90c\x00\x00<div><table><tr><td style="font-weight:bold;vertical-align:top;">ajax</td><td style="vertical-align:top;">:</td><td><div>False</div></td></tr><tr><td style="font-weight:bold;vertical-align:top;">application</td><td style="vertical-align:top;">:</td><td><div>monitorart</div></td></tr><tr><td style="font-weight:bold;vertical-align:top;">args</td><td style="vertical-align:top;">:</td><td><div><table></table></div></td></tr><tr><td style="font-weight:bold;vertical-align:top;">cid</td><td style="vertical-align:top;">:</td><td><div>None</div></td></tr><tr><td style="font-weight:bold;vertical-align:top;">client</td><td style="vertical-align:top;">:</td><td><div>127.0.0.1</div></td></tr><tr><td style="font-weight:bold;vertical-align:top;">controller</td><td style="vertical-align:top;">:</td><td><div>default</div></td></tr><tr><td style="font-weight:bold;vertical-align:top;">cookies</td><td style="vertical-align:top;">:</td><td><div><table><tr><td style="font-weight:bold;vertical-align:top;">session_id_admin</td><td style="vertical-align:top;">:</td><td><div>127.0.0.1-e46bab6f-4b6f-4130-a86e-52c736388288<table><tr><td style="font-weight:bold;vertical-align:top;">comment</td><td style="vertical-align:top;">:</td><td><div></div></td></tr><tr><td style="font-weight:bold;vertical-align:top;">domain</td><td style="vertical-align:top;">:</td><td><div></div></td></tr><tr><td style="font-weight:bold;vertical-align:top;">expires</td><td style="vertical-align:top;">:</td><td><div></div></td></tr><tr><td style="font-weight:bold;vertical-align:top;">httponly</td><td style="vertical-align:top;">:</td><td><div></div></td></tr><tr><td style="font-weight:bold;vertical-align:top;">max-age</td><td style="vertical-align:top;">:</td><td><div></div></td></tr><tr><td style="font-weight:bold;vertical-align:top;">path</td><td style="vertical-align:top;">:</td><td><div></div></td></tr><tr><td style="font-weight:bold;vertical-align:top;">secure</td><td style="vertical-align:top;">:</td><td><div></div></td></tr><tr><td style="font-weight:bold;vertical-align:top;">version</td><td style="vertical-align:top;">:</td><td><div></div></td></tr></table></div></td></tr><tr><td style="font-weight:bold;vertical-align:top;">session_id_monitorart</td><td style="vertical-align:top;">:</td><td><div>127.0.0.1-dd9268a8-f117-4cbc-bbe3-841851c8f71c<table><tr><td style="font-weight:bold;vertical-align:top;">comment</td><td style="vertical-align:top;">:</td><td><div></div></td></tr><tr><td style="font-weight:bold;vertical-align:top;">domain</td><td style="vertical-align:top;">:</td><td><div></div></td></tr><tr><td style="font-weight:bold;vertical-align:top;">expires</td><td style="vertical-align:top;">:</td><td><div></div></td></tr><tr><td style="font-weight:bold;vertical-align:top;">httponly</td><td style="vertical-align:top;">:</td><td><div></div></td></tr><tr><td style="font-weight:bold;vertical-align:top;">max-age</td><td style="vertical-align:top;">:</td><td><div></div></td></tr><tr><td style="font-weight:bold;vertical-align:top;">path</td><td style="vertical-align:top;">:</td><td><div></div></td></tr><tr><td style="font-weight:bold;vertical-align:top;">secure</td><td style="vertical-align:top;">:</td><td><div></div></td></tr><tr><td style="font-weight:bold;vertical-align:top;">version</td><td style="vertical-align:top;">:</td><td><div></div></td></tr></table></div></td></tr><tr><td style="font-weight:bold;vertical-align:top;">session_id_pigpin</td><td style="vertical-align:top;">:</td><td><div>127.0.0.1-c9dd88b2-922b-4fce-83c0-fbc66d55e99b<table><tr><td style="font-weight:bold;vertical-align:top;">comment</td><td style="vertical-align:top;">:</td><td><div></div></td></tr><tr><td style="font-weight:bold;vertical-align:top;">domain</td><td style="vertical-align:top;">:</td><td><div></div></td></tr><tr><td style="font-weight:bold;vertical-align:top;">expires</td><td style="vertical-align:top;">:</td><td><div></div></td></tr><tr><td style="font-weight:bold;vertical-align:top;">httponly</td><td style="vertical-align:top;">:</td><td><div></div></td></tr><tr><td style="font-weight:bold;vertical-align:top;">max-age</td><td style="vertical-align:top;">:</td><td><div></div></td></tr><tr><td style="font-weight:bold;vertical-align:top;">path</td><td style="vertical-align:top;">:</td><td><div></div></td></tr><tr><td style="font-weight:bold;vertical-align:top;">secure</td><td style="vertical-align:top;">:</td><td><div></div></td></tr><tr><td style="font-weight:bold;vertical-align:top;">version</td><td style="vertical-align:top;">:</td><td><div></div></td></tr></table></div></td></tr><tr><td style="font-weight:bold;vertical-align:top;">session_id_welcome</td><td style="vertical-align:top;">:</td><td><div>127.0.0.1-b0345fa5-2892-4cba-a934-713934f31ace<table><tr><td style="font-weight:bold;vertical-align:top;">comment</td><td style="vertical-align:top;">:</td><td><div></div></td></tr><tr><td style="font-weight:bold;vertical-align:top;">domain</td><td style="vertical-align:top;">:</td><td><div></div></td></tr><tr><td style="font-weight:bold;vertical-align:top;">expires</td><td style="vertical-align:top;">:</td><td><div></div></td></tr><tr><td style="font-weight:bold;vertical-align:top;">httponly</td><td style="vertical-align:top;">:</td><td><div></div></td></tr><tr><td style="font-weight:bold;vertical-align:top;">max-age</td><td style="vertical-align:top;">:</td><td><div></div></td></tr><tr><td style="font-weight:bold;vertical-align:top;">path</td><td style="vertical-align:top;">:</td><td><div></div></td></tr><tr><td style="font-weight:bold;vertical-align:top;">secure</td><td style="vertical-align:top;">:</td><td><div></div></td></tr><tr><td style="font-weight:bold;vertical-align:top;">version</td><td style="vertical-align:top;">:</td><td><div></div></td></tr></table></div></td></tr></table></div></td></tr><tr><td style="font-weight:bold;vertical-align:top;">env</td><td style="vertical-align:top;">:</td><td><div><table><tr><td style="font-weight:bold;vertical-align:top;">HTTP_ACCEPT</td><td style="vertical-align:top;">:</td><td><div>text/html,application/xhtml+xml,application/xml;q=0.9,image/webp,*/*;q=0.8</div></td></tr><tr><td style="font-weight:bold;vertical-align:top;">HTTP_ACCEPT_ENCODING</td><td style="vertical-align:top;">:</td><td><div>gzip, deflate, sdch</div></td></tr><tr><td style="font-weight:bold;vertical-align:top;">HTTP_ACCEPT_LANGUAGE</td><td style="vertical-align:top;">:</td><td><div>pt-BR,pt;q=0.8,en-US;q=0.6,en;q=0.4,es-419;q=0.2,es;q=0.2</div></td></tr><tr><td style="font-weight:bold;vertical-align:top;">HTTP_CACHE_CONTROL</td><td style="vertical-align:top;">:</td><td><div>max-age=0</div></td></tr><tr><td style="font-weight:bold;vertical-align:top;">HTTP_CONNECTION</td><td style="vertical-align:top;">:</td><td><div>keep-alive</div></td></tr><tr><td style="font-weight:bold;vertical-align:top;">HTTP_COOKIE</td><td style="vertical-align:top;">:</td><td><div>session_id_pigpin=127.0.0.1-c9dd88b2-922b-4fce-83c0-fbc66d55e99b; _ga=GA1.1.723871775.1433537858; __utma=96992031.723871775.1433537858.1441382269.1443099684.58; __utmc=96992031; __utmz=96992031.1433537858.1.1.utmcsr=(direct)|utmccn=(direct)|utmcmd=(none); session_id_welcome=127.0.0.1-b0345fa5-2892-4cba-a934-713934f31ace; session_id_monitorart=127.0.0.1-dd9268a8-f117-4cbc-bbe3-841851c8f71c; session_id_admin=127.0.0.1-e46bab6f-4b6f-4130-a86e-52c736388288</div></td></tr><tr><td style="font-weight:bold;vertical-align:top;">HTTP_HOST</td><td style="vertical-align:top;">:</td><td><div>127.0.0.1:8000</div></td></tr><tr><td style="font-weight:bold;vertical-align:top;">HTTP_REFERER</td><td style="vertical-align:top;">:</td><td><div>http://127.0.0.1:8000/monitorart/default/user/login</div></td></tr><tr><td style="font-weight:bold;vertical-align:top;">HTTP_USER_AGENT</td><td style="vertical-align:top;">:</td><td><div>Mozilla/5.0 (X11; Linux i686) AppleWebKit/537.36 (KHTML, like Gecko) Chrome/43.0.2357.81 Safari/537.36</div></td></tr><tr><td style="font-weight:bold;vertical-align:top;">PATH_INFO</td><td style="vertical-align:top;">:</td><td><div>/monitorart/default/index</div></td></tr><tr><td style="font-weight:bold;vertical-align:top;">QUERY_STRING</td><td style="vertical-align:top;">:</td><td><div></div></td></tr><tr><td style="font-weight:bold;vertical-align:top;">REMOTE_ADDR</td><td style="vertical-align:top;">:</td><td><div>127.0.0.1</div></td></tr><tr><td style="font-weight:bold;vertical-align:top;">REMOTE_PORT</td><td style="vertical-align:top;">:</td><td><div>52057</div></td></tr><tr><td style="font-weight:bold;vertical-align:top;">REQUEST_METHOD</td><td style="vertical-align:top;">:</td><td><div>GET</div></td></tr><tr><td style="font-weight:bold;vertical-align:top;">SCRIPT_NAME</td><td style="vertical-align:top;">:</td><td><div></div></td></tr><tr><td style="font-weight:bold;vertical-align:top;">SERVER_NAME</td><td style="vertical-align:top;">:</td><td><div>wellington-Inspiron-1545</div></td></tr><tr><td style="font-weight:bold;vertical-align:top;">SERVER_PORT</td><td style="vertical-align:top;">:</td><td><div>8000</div></td></tr><tr><td style="font-weight:bold;vertical-align:top;">SERVER_PROTOCOL</td><td style="vertical-align:top;">:</td><td><div>HTTP/1.1</div></td></tr><tr><td style="font-weight:bold;vertical-align:top;">SERVER_SOFTWARE</td><td style="vertical-align:top;">:</td><td><div>Rocket 1.2.6</div></td></tr><tr><td style="font-weight:bold;vertical-align:top;">app_folders</td><td style="vertical-align:top;">:</td><td><div>set([&#x27;/home/wellington/SPIn/web2py/applications/admin/&#x27;, &#x27;/home/wellington/SPIn/web2py/applications/welcome/&#x27;, &#x27;/home/wellington/SPIn/web2py/applications/monitorart/&#x27;])</div></td></tr><tr><td style="font-weight:bold;vertical-align:top;">applications_parent</td><td style="vertical-align:top;">:</td><td><div>/home/wellington/SPIn/web2py</div></td></tr><tr><td style="font-weight:bold;vertical-align:top;">cmd_args</td><td style="vertical-align:top;">:</td><td><div><table></table></div></td></tr><tr><td style="font-weight:bold;vertical-align:top;">cmd_options</td><td style="vertical-align:top;">:</td><td><div>&lt;Values at 0xb56bf1ec: {&#x27;verbose&#x27;: False, &#x27;ip&#x27;: &#x27;127.0.0.1&#x27;, &#x27;debuglevel&#x27;: 30, &#x27;with_scheduler&#x27;: False, &#x27;ips&#x27;: [&#x27;127.0.1.1&#x27;], &#x27;shutdown_timeout&#x27;: 5, &#x27;taskbar&#x27;: False, &#x27;with_coverage&#x27;: False, &#x27;scheduler_groups&#x27;: None, &#x27;port&#x27;: 8000, &#x27;maxthreads&#x27;: None, &#x27;softcron&#x27;: False, &#x27;server_name&#x27;: &#x27;wellington-Inspiron-1545&#x27;, &#x27;bpython&#x27;: False, &#x27;nogui&#x27;: False, &#x27;pid_filename&#x27;: &#x27;httpserver.pid&#x27;, &#x27;print_errors&#x27;: False, &#x27;extcron&#x27;: False, &#x27;runcron&#x27;: False, &#x27;run_system_tests&#x27;: False, &#x27;test&#x27;: None, &#x27;folder&#x27;: &#x27;/home/wellington/SPIn/web2py&#x27;, &#x27;config&#x27;: &#x27;&#x27;, &#x27;minthreads&#x27;: None, &#x27;shell&#x27;: None, &#x27;run&#x27;: &#x27;&#x27;, &#x27;log_filename&#x27;: &#x27;httpserver.log&#x27;, &#x27;profiler_dir&#x27;: None, &#x27;args&#x27;: [&#x27;&#x27;], &#x27;socket_timeout&#x27;: 5, &#x27;ssl_ca_certificate&#x27;: None, &#x27;scheduler&#x27;: None, &#x27;interfaces&#x27;: None, &#x27;ssl_private_key&#x27;: &#x27;&#x27;, &#x27;gae&#x27;: None, &#x27;password&#x27;: &#x27;&lt;ask&gt;&#x27;, &#x27;request_queue_size&#x27;: 5, &#x27;ssl_certificate&#x27;: &#x27;&#x27;, &#x27;cronjob&#x27;: False, &#x27;numthreads&#x27;: None, &#x27;quiet&#x27;: False, &#x27;import_models&#x27;: False, &#x27;timeout&#x27;: 10, &#x27;plain&#x27;: False, &#x27;nobanner&#x27;: False}&gt;</div></td></tr><tr><td style="font-weight:bold;vertical-align:top;">db_sessions</td><td style="vertical-align:top;">:</td><td><div>set([])</div></td></tr><tr><td style="font-weight:bold;vertical-align:top;">debugging</td><td style="vertical-align:top;">:</td><td><div>False</div></td></tr><tr><td style="font-weight:bold;vertical-align:top;">gluon_parent</td><td style="vertical-align:top;">:</td><td><div>/home/wellington/SPIn/web2py</div></td></tr><tr><td style="font-weight:bold;vertical-align:top;">http_accept</td><td style="vertical-align:top;">:</td><td><div>text/html,application/xhtml+xml,application/xml;q=0.9,image/webp,*/*;q=0.8</div></td></tr><tr><td style="font-weight:bold;vertical-align:top;">http_accept_encoding</td><td style="vertical-align:top;">:</td><td><div>gzip, deflate, sdch</div></td></tr><tr><td style="font-weight:bold;vertical-align:top;">http_accept_language</td><td style="vertical-align:top;">:</td><td><div>pt-BR,pt;q=0.8,en-US;q=0.6,en;q=0.4,es-419;q=0.2,es;q=0.2</div></td></tr><tr><td style="font-weight:bold;vertical-align:top;">http_cache_control</td><td style="vertical-align:top;">:</td><td><div>max-age=0</div></td></tr><tr><td style="font-weight:bold;vertical-align:top;">http_connection</td><td style="vertical-align:top;">:</td><td><div>keep-alive</div></td></tr><tr><td style="font-weight:bold;vertical-align:top;">http_cookie</td><td style="vertical-align:top;">:</td><td><div>session_id_pigpin=127.0.0.1-c9dd88b2-922b-4fce-83c0-fbc66d55e99b; _ga=GA1.1.723871775.1433537858; __utma=96992031.723871775.1433537858.1441382269.1443099684.58; __utmc=96992031; __utmz=96992031.1433537858.1.1.utmcsr=(direct)|utmccn=(direct)|utmcmd=(none); session_id_welcome=127.0.0.1-b0345fa5-2892-4cba-a934-713934f31ace; session_id_monitorart=127.0.0.1-dd9268a8-f117-4cbc-bbe3-841851c8f71c; session_id_admin=127.0.0.1-e46bab6f-4b6f-4130-a86e-52c736388288</div></td></tr><tr><td style="font-weight:bold;vertical-align:top;">http_host</td><td style="vertical-align:top;">:</td><td><div>127.0.0.1:8000</div></td></tr><tr><td style="font-weight:bold;vertical-align:top;">http_referer</td><td style="vertical-align:top;">:</td><td><div>http://127.0.0.1:8000/monitorart/default/user/login</div></td></tr><tr><td style="font-weight:bold;vertical-align:top;">http_user_agent</td><td style="vertical-align:top;">:</td><td><div>Mozilla/5.0 (X11; Linux i686) AppleWebKit/537.36 (KHTML, like Gecko) Chrome/43.0.2357.81 Safari/537.36</div></td></tr><tr><td style="font-weight:bold;vertical-align:top;">is_jython</td><td style="vertical-align:top;">:</td><td><div>False</div></td></tr><tr><td style="font-weight:bold;vertical-align:top;">is_pypy</td><td style="vertical-align:top;">:</td><td><div>False</div></td></tr><tr><td style="font-weight:bold;vertical-align:top;">is_source</td><td style="vertical-align:top;">:</td><td><div>True</div></td></tr><tr><td style="font-weight:bold;vertical-align:top;">local_hosts</td><td style="vertical-align:top;">:</td><td><div><table><tr><td><div>wellington-Inspiron-1545</div></td></tr><tr><td><div>::1</div></td></tr><tr><td><div>127.0.1.1</div></td></tr><tr><td><div>::ffff:127.0.0.1</div></td></tr><tr><td><div>127.0.0.1</div></td></tr></table></div></td></tr><tr><td style="font-weight:bold;vertical-align:top;">path_info</td><td style="vertical-align:top;">:</td><td><div>/monitorart/default/index</div></td></tr><tr><td style="font-weight:bold;vertical-align:top;">query_string</td><td style="vertical-align:top;">:</td><td><div></div></td></tr><tr><td style="font-weight:bold;vertical-align:top;">remote_addr</td><td style="vertical-align:top;">:</td><td><div>127.0.0.1</div></td></tr><tr><td style="font-weight:bold;vertical-align:top;">remote_port</td><td style="vertical-align:top;">:</td><td><div>52057</div></td></tr><tr><td style="font-weight:bold;vertical-align:top;">request_method</td><td style="vertical-align:top;">:</td><td><div>GET</div></td></tr><tr><td style="font-weight:bold;vertical-align:top;">request_uri</td><td style="vertical-align:top;">:</td><td><div>/monitorart/default/index</div></td></tr><tr><td style="font-weight:bold;vertical-align:top;">script_name</td><td style="vertical-align:top;">:</td><td><div></div></td></tr><tr><td style="font-weight:bold;vertical-align:top;">server_name</td><td style="vertical-align:top;">:</td><td><div>wellington-Inspiron-1545</div></td></tr><tr><td style="font-weight:bold;vertical-align:top;">server_port</td><td style="vertical-align:top;">:</td><td><div>8000</div></td></tr><tr><td style="font-weight:bold;vertical-align:top;">server_protocol</td><td style="vertical-align:top;">:</td><td><div>HTTP/1.1</div></td></tr><tr><td style="font-weight:bold;vertical-align:top;">server_software</td><td style="vertical-align:top;">:</td><td><div>Rocket 1.2.6</div></td></tr><tr><td style="font-weight:bold;vertical-align:top;">web2py_path</td><td style="vertical-align:top;">:</td><td><div>/home/wellington/SPIn/web2py</div></td></tr><tr><td style="font-weight:bold;vertical-align:top;">web2py_version</td><td style="vertical-align:top;">:</td><td><div>2.11.2-stable+timestamp.2015.05.30.16.33.24</div></td></tr><tr><td style="font-weight:bold;vertical-align:top;">wsgi.errors</td><td style="vertical-align:top;">:</td><td><div>&lt;open file &#x27;&lt;stderr&gt;&#x27;, mode &#x27;w&#x27; at 0xb74880d0&gt;</div></td></tr><tr><td style="font-weight:bold;vertical-align:top;">wsgi.file_wrapper</td><td style="vertical-align:top;">:</td><td><div>&lt;class wsgiref.util.FileWrapper at 0xb662e68c&gt;</div></td></tr><tr><td style="font-weight:bold;vertical-align:top;">wsgi.input</td><td style="vertical-align:top;">:</td><td><div>&lt;socket._fileobject object at 0xae09de2c&gt;</div></td></tr><tr><td style="font-weight:bold;vertical-align:top;">wsgi.multiprocess</td><td style="vertical-align:top;">:</td><td><div>False</div></td></tr><tr><td style="font-weight:bold;vertical-align:top;">wsgi.multithread</td><td style="vertical-align:top;">:</td><td><div>True</div></td></tr><tr><td style="font-weight:bold;vertical-align:top;">wsgi.run_once</td><td style="vertical-align:top;">:</td><td><div>False</div></td></tr><tr><td style="font-weight:bold;vertical-align:top;">wsgi.url_scheme</td><td style="vertical-align:top;">:</td><td><div>http</div></td></tr><tr><td style="font-weight:bold;vertical-align:top;">wsgi.version</td><td style="vertical-align:top;">:</td><td><div><table><tr><td><div>1</div></td></tr><tr><td><div>0</div></td></tr></table></div></td></tr><tr><td style="font-weight:bold;vertical-align:top;">wsgi_errors</td><td style="vertical-align:top;">:</td><td><div>&lt;open file &#x27;&lt;stderr&gt;&#x27;, mode &#x27;w&#x27; at 0xb74880d0&gt;</div></td></tr><tr><td style="font-weight:bold;vertical-align:top;">wsgi_file_wrapper</td><td style="vertical-align:top;">:</td><td><div>&lt;class wsgiref.util.FileWrapper at 0xb662e68c&gt;</div></td></tr><tr><td style="font-weight:bold;vertical-align:top;">wsgi_input</td><td style="vertical-align:top;">:</td><td><div>&lt;socket._fileobject object at 0xae09de2c&gt;</div></td></tr><tr><td style="font-weight:bold;vertical-align:top;">wsgi_multiprocess</td><td style="vertical-align:top;">:</td><td><div>False</div></td></tr><tr><td style="font-weight:bold;vertical-align:top;">wsgi_multithread</td><td style="vertical-align:top;">:</td><td><div>True</div></td></tr><tr><td style="font-weight:bold;vertical-align:top;">wsgi_run_once</td><td style="vertical-align:top;">:</td><td><div>False</div></td></tr><tr><td style="font-weight:bold;vertical-align:top;">wsgi_url_scheme</td><td style="vertical-align:top;">:</td><td><div>http</div></td></tr><tr><td style="font-weight:bold;vertical-align:top;">wsgi_version</td><td style="vertical-align:top;">:</td><td><div><table><tr><td><div>1</div></td></tr><tr><td><div>0</div></td></tr></table></div></td></tr></table></div></td></tr><tr><td style="font-weight:bold;vertical-align:top;">extension</td><td style="vertical-align:top;">:</td><td><div>html</div></td></tr><tr><td style="font-weight:bold;vertical-align:top;">folder</td><td style="vertical-align:top;">:</td><td><div>/home/wellington/SPIn/web2py/applications/monitorart/</div></td></tr><tr><td style="font-weight:bold;vertical-align:top;">function</td><td style="vertical-align:top;">:</td><td><div>index</div></td></tr><tr><td style="font-weight:bold;vertical-align:top;">global_settings</td><td style="vertical-align:top;">:</td><td><div><table><tr><td style="font-weight:bold;vertical-align:top;">app_folders</td><td style="vertical-align:top;">:</td><td><div>set([&#x27;/home/wellington/SPIn/web2py/applications/admin/&#x27;, &#x27;/home/wellington/SPIn/web2py/applications/welcome/&#x27;, &#x27;/home/wellington/SPIn/web2py/applications/monitorart/&#x27;])</div></td></tr><tr><td style="font-weight:bold;vertical-align:top;">applications_parent</td><td style="vertical-align:top;">:</td><td><div>/home/wellington/SPIn/web2py</div></td></tr><tr><td style="font-weight:bold;vertical-align:top;">cmd_args</td><td style="vertical-align:top;">:</td><td><div><table></table></div></td></tr><tr><td style="font-weight:bold;vertical-align:top;">cmd_options</td><td style="vertical-align:top;">:</td><td><div>&lt;Values at 0xb56bf1ec: {&#x27;verbose&#x27;: False, &#x27;ip&#x27;: &#x27;127.0.0.1&#x27;, &#x27;debuglevel&#x27;: 30, &#x27;with_scheduler&#x27;: False, &#x27;ips&#x27;: [&#x27;127.0.1.1&#x27;], &#x27;shutdown_timeout&#x27;: 5, &#x27;taskbar&#x27;: False, &#x27;with_coverage&#x27;: False, &#x27;scheduler_groups&#x27;: None, &#x27;port&#x27;: 8000, &#x27;maxthreads&#x27;: None, &#x27;softcron&#x27;: False, &#x27;server_name&#x27;: &#x27;wellington-Inspiron-1545&#x27;, &#x27;bpython&#x27;: False, &#x27;nogui&#x27;: False, &#x27;pid_filename&#x27;: &#x27;httpserver.pid&#x27;, &#x27;print_errors&#x27;: False, &#x27;extcron&#x27;: False, &#x27;runcron&#x27;: False, &#x27;run_system_tests&#x27;: False, &#x27;test&#x27;: None, &#x27;folder&#x27;: &#x27;/home/wellington/SPIn/web2py&#x27;, &#x27;config&#x27;: &#x27;&#x27;, &#x27;minthreads&#x27;: None, &#x27;shell&#x27;: None, &#x27;run&#x27;: &#x27;&#x27;, &#x27;log_filename&#x27;: &#x27;httpserver.log&#x27;, &#x27;profiler_dir&#x27;: None, &#x27;args&#x27;: [&#x27;&#x27;], &#x27;socket_timeout&#x27;: 5, &#x27;ssl_ca_certificate&#x27;: None, &#x27;scheduler&#x27;: None, &#x27;interfaces&#x27;: None, &#x27;ssl_private_key&#x27;: &#x27;&#x27;, &#x27;gae&#x27;: None, &#x27;password&#x27;: &#x27;&lt;ask&gt;&#x27;, &#x27;request_queue_size&#x27;: 5, &#x27;ssl_certificate&#x27;: &#x27;&#x27;, &#x27;cronjob&#x27;: False, &#x27;numthreads&#x27;: None, &#x27;quiet&#x27;: False, &#x27;import_models&#x27;: False, &#x27;timeout&#x27;: 10, &#x27;plain&#x27;: False, &#x27;nobanner&#x27;: False}&gt;</div></td></tr><tr><td style="font-weight:bold;vertical-align:top;">db_sessions</td><td style="vertical-align:top;">:</td><td><div>set([])</div></td></tr><tr><td style="font-weight:bold;vertical-align:top;">debugging</td><td style="vertical-align:top;">:</td><td><div>False</div></td></tr><tr><td style="font-weight:bold;vertical-align:top;">gluon_parent</td><td style="vertical-align:top;">:</td><td><div>/home/wellington/SPIn/web2py</div></td></tr><tr><td style="font-weight:bold;vertical-align:top;">is_jython</td><td style="vertical-align:top;">:</td><td><div>False</div></td></tr><tr><td style="font-weight:bold;vertical-align:top;">is_pypy</td><td style="vertical-align:top;">:</td><td><div>False</div></td></tr><tr><td style="font-weight:bold;vertical-align:top;">is_source</td><td style="vertical-align:top;">:</td><td><div>True</div></td></tr><tr><td style="font-weight:bold;vertical-align:top;">local_hosts</td><td style="vertical-align:top;">:</td><td><div><table><tr><td><div>wellington-Inspiron-1545</div></td></tr><tr><td><div>::1</div></td></tr><tr><td><div>127.0.1.1</div></td></tr><tr><td><div>::ffff:127.0.0.1</div></td></tr><tr><td><div>127.0.0.1</div></td></tr></table></div></td></tr><tr><td style="font-weight:bold;vertical-align:top;">web2py_version</td><td style="vertical-align:top;">:</td><td><div>2.11.2-stable+timestamp.2015.05.30.16.33.24</div></td></tr></table></div></td></tr><tr><td style="font-weight:bold;vertical-align:top;">is_https</td><td style="vertical-align:top;">:</td><td><div>False</div></td></tr><tr><td style="font-weight:bold;vertical-align:top;">is_local</td><td style="vertical-align:top;">:</td><td><div>True</div></td></tr><tr><td style="font-weight:bold;vertical-align:top;">is_restful</td><td style="vertical-align:top;">:</td><td><div>False</div></td></tr><tr><td style="font-weight:bold;vertical-align:top;">is_sheduler</td><td style="vertical-align:top;">:</td><td><div>None</div></td></tr><tr><td style="font-weight:bold;vertical-align:top;">is_shell</td><td style="vertical-align:top;">:</td><td><div>None</div></td></tr><tr><td style="font-weight:bold;vertical-align:top;">now</td><td style="vertical-align:top;">:</td><td><div>datetime.datetime(2015, 9, 28, 13, 44, 28, 742887)</div></td></tr><tr><td style="font-weight:bold;vertical-align:top;">raw_args</td><td style="vertical-align:top;">:</td><td><div></div></td></tr><tr><td style="font-weight:bold;vertical-align:top;">raw_extension</td><td style="vertical-align:top;">:</td><td><div>None</div></td></tr><tr><td style="font-weight:bold;vertical-align:top;">url</td><td style="vertical-align:top;">:</td><td><div>/monitorart/default/index</div></td></tr><tr><td style="font-weight:bold;vertical-align:top;">utcnow</td><td style="vertical-align:top;">:</td><td><div>datetime.datetime(2015, 9, 28, 16, 44, 28, 742906)</div></td></tr><tr><td style="font-weight:bold;vertical-align:top;">wsgi</td><td style="vertical-align:top;">:</td><td><div>&lt;gluon.main.LazyWSGI object at 0xadc8276c&gt;</div></td></tr></table></div>'
tRp68
sS'frames'
p69
(lp70
(dp71
S'file'
p72
S'/home/wellington/SPIn/web2py/gluon/restricted.py'
p73
sS'dump'
p74
(dp75
S'code'
p76
S'\'response.write(\\\'<!DOCTYPE html>\\\\n<html lang="en"...y.js\\\')}}", escape=False)\\n</script>\\n</body>\\n</html\''
p77
sS'layer'
p78
S"'/home/wellington/SPIn/web2py/applications/monitorart/views/default/index.html'"
p79
sS'global compile2'
p80
S'<function compile2>'
p81
sS'ccode'
p82
S'undefined'
p83
ssS'lnum'
p84
I226
sS'lines'
p85
(dp86
I224
S'            ccode = code'
p87
sI225
S'        else:'
p88
sI226
S'            ccode = compile2(code, layer)'
p89
sI227
S'        exec ccode in environment'
p90
sI228
S'    except HTTP:'
p91
sI229
S'        raise'
p92
sI230
S'    except RestrictedError:'
p93
sI221
S"    environment['__name__'] = '__restricted__'"
p94
sI222
S'    try:'
p95
sI223
S'        if isinstance(code, types.CodeType):'
p96
ssS'call'
p97
S'(code=\'response.write(\\\'<!DOCTYPE html>\\\\n<html lang="en"...y.js\\\')}}", escape=False)\\n</script>\\n</body>\\n</html\', environment={\'A\': <class \'gluon.html.A\'>, \'ANY_OF\': <class \'gluon.validators.ANY_OF\'>, \'ASSIGNJS\': <function ASSIGNJS>, \'AppConfig\': <function AppConfig>, \'Auth\': <class \'gluon.tools.Auth\'>, \'B\': <class \'gluon.html.B\'>, \'BEAUTIFY\': <class \'gluon.html.BEAUTIFY\'>, \'BODY\': <class \'gluon.html.BODY\'>, \'BR\': <class \'gluon.html.BR\'>, \'BUTTON\': <class \'gluon.html.BUTTON\'>, ...}, layer=\'/home/wellington/SPIn/web2py/applications/monitorart/views/default/index.html\')'
p98
sS'func'
p99
S'restricted'
p100
sa(dp101
g72
S'/home/wellington/SPIn/web2py/gluon/restricted.py'
p102
sg74
(dp103
S'builtincompile'
p104
S'<built-in function compile>'
p105
sS'code'
p106
S'\'response.write(\\\'<!DOCTYPE html>\\\\n<html lang="en"...y.js\\\')}}", escape=False)\\n</script>\\n</body>\\n</html\''
p107
sS'code.rstrip'
p108
S'<built-in method rstrip of str object>'
p109
sS').replace'
p110
g83
sS'layer'
p111
S"'/home/wellington/SPIn/web2py/applications/monitorart/views/default/index.html'"
p112
ssg84
I209
sg85
(dp113
I204
S'def compile2(code, layer):'
p114
sI205
S'    """'
p115
sI206
S"    The ``+'\\\\n'`` is necessary else compile fails when code ends in a comment."
p116
sI207
S'    """'
p117
sI208
S''
sI209
S"    return compile(code.rstrip().replace('\\r\\n', '\\n') + '\\n', layer, 'exec')"
p118
sI210
S''
sI211
S''
sI212
S"def restricted(code, environment=None, layer='Unknown'):"
p119
sI213
S'    """'
p120
ssg97
S'(code=\'response.write(\\\'<!DOCTYPE html>\\\\n<html lang="en"...y.js\\\')}}", escape=False)\\n</script>\\n</body>\\n</html\', layer=\'/home/wellington/SPIn/web2py/applications/monitorart/views/default/index.html\')'
p121
sg99
S'compile2'
p122
sasS'pyver'
p123
S'Python 2.7.9: /usr/bin/python (prefix: /usr)'
p124
sS'session'
p125
g67
(S's\x15\n\x00\x00<div><table><tr><td style="font-weight:bold;vertical-align:top;">auth</td><td style="vertical-align:top;">:</td><td><div><table><tr><td style="font-weight:bold;vertical-align:top;">expiration</td><td style="vertical-align:top;">:</td><td><div>3600</div></td></tr><tr><td style="font-weight:bold;vertical-align:top;">hmac_key</td><td style="vertical-align:top;">:</td><td><div>46e90d2a-faea-440b-8fb4-bebfc7fc88ef</div></td></tr><tr><td style="font-weight:bold;vertical-align:top;">last_visit</td><td style="vertical-align:top;">:</td><td><div>datetime.datetime(2015, 9, 28, 13, 39, 19, 788853)</div></td></tr><tr><td style="font-weight:bold;vertical-align:top;">remember_me</td><td style="vertical-align:top;">:</td><td><div>False</div></td></tr><tr><td style="font-weight:bold;vertical-align:top;">user</td><td style="vertical-align:top;">:</td><td><div><table><tr><td style="font-weight:bold;vertical-align:top;">email</td><td style="vertical-align:top;">:</td><td><div>wellingtonf@gec.inatel.br</div></td></tr><tr><td style="font-weight:bold;vertical-align:top;">first_name</td><td style="vertical-align:top;">:</td><td><div>Wellington</div></td></tr><tr><td style="font-weight:bold;vertical-align:top;">id</td><td style="vertical-align:top;">:</td><td><div>1L</div></td></tr><tr><td style="font-weight:bold;vertical-align:top;">last_name</td><td style="vertical-align:top;">:</td><td><div>Faria</div></td></tr><tr><td style="font-weight:bold;vertical-align:top;">registration_id</td><td style="vertical-align:top;">:</td><td><div></div></td></tr><tr><td style="font-weight:bold;vertical-align:top;">registration_key</td><td style="vertical-align:top;">:</td><td><div></div></td></tr><tr><td style="font-weight:bold;vertical-align:top;">reset_password_key</td><td style="vertical-align:top;">:</td><td><div></div></td></tr></table></div></td></tr><tr><td style="font-weight:bold;vertical-align:top;">user_groups</td><td style="vertical-align:top;">:</td><td><div><table><tr><td style="font-weight:bold;vertical-align:top;">1</td><td style="vertical-align:top;">:</td><td><div>user_1</div></td></tr></table></div></td></tr></table></div></td></tr><tr><td style="font-weight:bold;vertical-align:top;">flash</td><td style="vertical-align:top;">:</td><td><div>None</div></td></tr><tr><td style="font-weight:bold;vertical-align:top;">last_orderby</td><td style="vertical-align:top;">:</td><td><div>None</div></td></tr><tr><td style="font-weight:bold;vertical-align:top;">last_query</td><td style="vertical-align:top;">:</td><td><div>db.hardwares.id&gt;0</div></td></tr></table></div>'
tRp126
sS'etype'
p127
S"<type 'exceptions.SyntaxError'>"
p128
sS'date'
p129
S'Mon Sep 28 13:44:28 2015'
p130
sS'response'
p131
g67
(S's/@\x00\x00<div><table><tr><td style="font-weight:bold;vertical-align:top;">body</td><td style="vertical-align:top;">:</td><td><div>&lt;cStringIO.StringO object at 0xadcfaf00&gt;</div></td></tr><tr><td style="font-weight:bold;vertical-align:top;">cookies</td><td style="vertical-align:top;">:</td><td><div><table><tr><td style="font-weight:bold;vertical-align:top;">session_id_monitorart</td><td style="vertical-align:top;">:</td><td><div>127.0.0.1-dd9268a8-f117-4cbc-bbe3-841851c8f71c<table><tr><td style="font-weight:bold;vertical-align:top;">comment</td><td style="vertical-align:top;">:</td><td><div></div></td></tr><tr><td style="font-weight:bold;vertical-align:top;">domain</td><td style="vertical-align:top;">:</td><td><div></div></td></tr><tr><td style="font-weight:bold;vertical-align:top;">expires</td><td style="vertical-align:top;">:</td><td><div></div></td></tr><tr><td style="font-weight:bold;vertical-align:top;">httponly</td><td style="vertical-align:top;">:</td><td><div></div></td></tr><tr><td style="font-weight:bold;vertical-align:top;">max-age</td><td style="vertical-align:top;">:</td><td><div></div></td></tr><tr><td style="font-weight:bold;vertical-align:top;">path</td><td style="vertical-align:top;">:</td><td><div>/</div></td></tr><tr><td style="font-weight:bold;vertical-align:top;">secure</td><td style="vertical-align:top;">:</td><td><div></div></td></tr><tr><td style="font-weight:bold;vertical-align:top;">version</td><td style="vertical-align:top;">:</td><td><div></div></td></tr></table></div></td></tr></table></div></td></tr><tr><td style="font-weight:bold;vertical-align:top;">delimiters</td><td style="vertical-align:top;">:</td><td><div><table><tr><td><div>{{</div></td></tr><tr><td><div>}}</div></td></tr></table></div></td></tr><tr><td style="font-weight:bold;vertical-align:top;">files</td><td style="vertical-align:top;">:</td><td><div><table></table></div></td></tr><tr><td style="font-weight:bold;vertical-align:top;">flash</td><td style="vertical-align:top;">:</td><td><div>Ol\xc3\xa1 Mundo</div></td></tr><tr><td style="font-weight:bold;vertical-align:top;">form_label_separator</td><td style="vertical-align:top;">:</td><td><div></div></td></tr><tr><td style="font-weight:bold;vertical-align:top;">formstyle</td><td style="vertical-align:top;">:</td><td><div>bootstrap3_inline</div></td></tr><tr><td style="font-weight:bold;vertical-align:top;">generic_patterns</td><td style="vertical-align:top;">:</td><td><div><table><tr><td><div>*</div></td></tr></table></div></td></tr><tr><td style="font-weight:bold;vertical-align:top;">google_analytics_id</td><td style="vertical-align:top;">:</td><td><div>None</div></td></tr><tr><td style="font-weight:bold;vertical-align:top;">headers</td><td style="vertical-align:top;">:</td><td><div><table><tr><td style="font-weight:bold;vertical-align:top;">X-Powered-By</td><td style="vertical-align:top;">:</td><td><div>web2py</div></td></tr></table></div></td></tr><tr><td style="font-weight:bold;vertical-align:top;">logo</td><td style="vertical-align:top;">:</td><td><div><a class="navbar-brand" href="http://www.web2py.com/" id="web2py-logo"><b>web<span>2</span>py</b>&trade;&nbsp;</a></div></td></tr><tr><td style="font-weight:bold;vertical-align:top;">menu</td><td style="vertical-align:top;">:</td><td><div><table><tr><td><div><table><tr><td><div>Principal</div></td></tr><tr><td><div>False</div></td></tr><tr><td><div>/monitorart/default/index</div></td></tr><tr><td><div><table></table></div></td></tr></table></div></td></tr><tr><td><div><table><tr><td><div>Meus sites</div></td></tr><tr><td><div>False</div></td></tr><tr><td><div>/admin/default/site</div></td></tr></table></div></td></tr><tr><td><div><table><tr><td><div>Esta aplica\xc3\xa7\xc3\xa3o</div></td></tr><tr><td><div>False</div></td></tr><tr><td><div>#</div></td></tr><tr><td><div><table><tr><td><div><table><tr><td><div>Design</div></td></tr><tr><td><div>False</div></td></tr><tr><td><div>/admin/default/design/monitorart</div></td></tr></table></div></td></tr><tr><td><div><li class="divider"></li></div></td></tr><tr><td><div><table><tr><td><div>Controlador</div></td></tr><tr><td><div>False</div></td></tr><tr><td><div>/admin/default/edit/monitorart/controllers/default.py</div></td></tr></table></div></td></tr><tr><td><div><table><tr><td><div>Visualiza\xc3\xa7\xc3\xa3o</div></td></tr><tr><td><div>False</div></td></tr><tr><td><div>/admin/default/edit/monitorart/views/default/index.html</div></td></tr></table></div></td></tr><tr><td><div><table><tr><td><div>Modelo BD</div></td></tr><tr><td><div>False</div></td></tr><tr><td><div>/admin/default/edit/monitorart/models/db.py</div></td></tr></table></div></td></tr><tr><td><div><table><tr><td><div>Modelo de Menu</div></td></tr><tr><td><div>False</div></td></tr><tr><td><div>/admin/default/edit/monitorart/models/menu.py</div></td></tr></table></div></td></tr><tr><td><div><table><tr><td><div>Config.ini</div></td></tr><tr><td><div>False</div></td></tr><tr><td><div>/admin/default/edit/monitorart/private/appconfig.ini</div></td></tr></table></div></td></tr><tr><td><div><table><tr><td><div>Layout</div></td></tr><tr><td><div>False</div></td></tr><tr><td><div>/admin/default/edit/monitorart/views/layout.html</div></td></tr></table></div></td></tr><tr><td><div><table><tr><td><div>Folha de estilo</div></td></tr><tr><td><div>False</div></td></tr><tr><td><div>/admin/default/edit/monitorart/static/css/web2py-bootstrap3.css</div></td></tr></table></div></td></tr><tr><td><div><table><tr><td><div>banco de dados</div></td></tr><tr><td><div>False</div></td></tr><tr><td><div>/monitorart/appadmin/index</div></td></tr></table></div></td></tr><tr><td><div><table><tr><td><div>Erros</div></td></tr><tr><td><div>False</div></td></tr><tr><td><div>/admin/default/errors/monitorart</div></td></tr></table></div></td></tr><tr><td><div><table><tr><td><div>Sobre</div></td></tr><tr><td><div>False</div></td></tr><tr><td><div>/admin/default/about/monitorart</div></td></tr></table></div></td></tr></table></div></td></tr></table></div></td></tr><tr><td><div><table><tr><td><div>web2py.com</div></td></tr><tr><td><div>False</div></td></tr><tr><td><div>#</div></td></tr><tr><td><div><table><tr><td><div><table><tr><td><div>Download</div></td></tr><tr><td><div>False</div></td></tr><tr><td><div>http://www.web2py.com/examples/default/download</div></td></tr></table></div></td></tr><tr><td><div><table><tr><td><div>Suporte</div></td></tr><tr><td><div>False</div></td></tr><tr><td><div>http://www.web2py.com/examples/default/support</div></td></tr></table></div></td></tr><tr><td><div><table><tr><td><div>Demo</div></td></tr><tr><td><div>False</div></td></tr><tr><td><div>http://web2py.com/demo_admin</div></td></tr></table></div></td></tr><tr><td><div><table><tr><td><div>Exemplos r\xc3\xa1pidos</div></td></tr><tr><td><div>False</div></td></tr><tr><td><div>http://web2py.com/examples/default/examples</div></td></tr></table></div></td></tr><tr><td><div><table><tr><td><div>Perguntas frequentes</div></td></tr><tr><td><div>False</div></td></tr><tr><td><div>http://web2py.com/AlterEgo</div></td></tr></table></div></td></tr><tr><td><div><table><tr><td><div>V\xc3\xaddeos</div></td></tr><tr><td><div>False</div></td></tr><tr><td><div>http://www.web2py.com/examples/default/videos/</div></td></tr></table></div></td></tr><tr><td><div><table><tr><td><div>Aplica\xc3\xa7\xc3\xb5es gratuitas</div></td></tr><tr><td><div>False</div></td></tr><tr><td><div>http://web2py.com/appliances</div></td></tr></table></div></td></tr><tr><td><div><table><tr><td><div>Plugins</div></td></tr><tr><td><div>False</div></td></tr><tr><td><div>http://web2py.com/plugins</div></td></tr></table></div></td></tr><tr><td><div><table><tr><td><div>Receitas</div></td></tr><tr><td><div>False</div></td></tr><tr><td><div>http://web2pyslices.com/</div></td></tr></table></div></td></tr></table></div></td></tr></table></div></td></tr><tr><td><div><table><tr><td><div>Documenta\xc3\xa7\xc3\xa3o</div></td></tr><tr><td><div>False</div></td></tr><tr><td><div>#</div></td></tr><tr><td><div><table><tr><td><div><table><tr><td><div>Online book</div></td></tr><tr><td><div>False</div></td></tr><tr><td><div>http://www.web2py.com/book</div></td></tr></table></div></td></tr><tr><td><div><li class="divider"></li></div></td></tr><tr><td><div><table><tr><td><div>Pref\xc3\xa1cio</div></td></tr><tr><td><div>False</div></td></tr><tr><td><div>http://www.web2py.com/book/default/chapter/00</div></td></tr></table></div></td></tr><tr><td><div><table><tr><td><div>Introdu\xc3\xa7\xc3\xa3o</div></td></tr><tr><td><div>False</div></td></tr><tr><td><div>http://www.web2py.com/book/default/chapter/01</div></td></tr></table></div></td></tr><tr><td><div><table><tr><td><div>Python</div></td></tr><tr><td><div>False</div></td></tr><tr><td><div>http://www.web2py.com/book/default/chapter/02</div></td></tr></table></div></td></tr><tr><td><div><table><tr><td><div>Vis\xc3\xa3o Geral</div></td></tr><tr><td><div>False</div></td></tr><tr><td><div>http://www.web2py.com/book/default/chapter/03</div></td></tr></table></div></td></tr><tr><td><div><table><tr><td><div>The Core</div></td></tr><tr><td><div>False</div></td></tr><tr><td><div>http://www.web2py.com/book/default/chapter/04</div></td></tr></table></div></td></tr><tr><td><div><table><tr><td><div>As views</div></td></tr><tr><td><div>False</div></td></tr><tr><td><div>http://www.web2py.com/book/default/chapter/05</div></td></tr></table></div></td></tr><tr><td><div><table><tr><td><div>banco de dados</div></td></tr><tr><td><div>False</div></td></tr><tr><td><div>http://www.web2py.com/book/default/chapter/06</div></td></tr></table></div></td></tr><tr><td><div><table><tr><td><div>Formul\xc3\xa1rios e Validadores</div></td></tr><tr><td><div>False</div></td></tr><tr><td><div>http://www.web2py.com/book/default/chapter/07</div></td></tr></table></div></td></tr><tr><td><div><table><tr><td><div>Email e SMS</div></td></tr><tr><td><div>False</div></td></tr><tr><td><div>http://www.web2py.com/book/default/chapter/08</div></td></tr></table></div></td></tr><tr><td><div><table><tr><td><div>Controle de Acesso</div></td></tr><tr><td><div>False</div></td></tr><tr><td><div>http://www.web2py.com/book/default/chapter/09</div></td></tr></table></div></td></tr><tr><td><div><table><tr><td><div>Servi\xc3\xa7o</div></td></tr><tr><td><div>False</div></td></tr><tr><td><div>http://www.web2py.com/book/default/chapter/10</div></td></tr></table></div></td></tr><tr><td><div><table><tr><td><div>Receitas de Ajax</div></td></tr><tr><td><div>False</div></td></tr><tr><td><div>http://www.web2py.com/book/default/chapter/11</div></td></tr></table></div></td></tr><tr><td><div><table><tr><td><div>Componentes e Plugins</div></td></tr><tr><td><div>False</div></td></tr><tr><td><div>http://www.web2py.com/book/default/chapter/12</div></td></tr></table></div></td></tr><tr><td><div><table><tr><td><div>Receitas de deploy</div></td></tr><tr><td><div>False</div></td></tr><tr><td><div>http://www.web2py.com/book/default/chapter/13</div></td></tr></table></div></td></tr><tr><td><div><table><tr><td><div>Outras Receitas</div></td></tr><tr><td><div>False</div></td></tr><tr><td><div>http://www.web2py.com/book/default/chapter/14</div></td></tr></table></div></td></tr><tr><td><div><table><tr><td><div>Helping web2py</div></td></tr><tr><td><div>False</div></td></tr><tr><td><div>http://www.web2py.com/book/default/chapter/15</div></td></tr></table></div></td></tr><tr><td><div><table><tr><td><div>Buy web2py\'s book</div></td></tr><tr><td><div>False</div></td></tr><tr><td><div>http://stores.lulu.com/web2py</div></td></tr></table></div></td></tr></table></div></td></tr></table></div></td></tr><tr><td><div><table><tr><td><div>Comunidade</div></td></tr><tr><td><div>False</div></td></tr><tr><td><div>None</div></td></tr><tr><td><div><table><tr><td><div><table><tr><td><div>Grupos</div></td></tr><tr><td><div>False</div></td></tr><tr><td><div>http://www.web2py.com/examples/default/usergroups</div></td></tr></table></div></td></tr><tr><td><div><table><tr><td><div>Twitter</div></td></tr><tr><td><div>False</div></td></tr><tr><td><div>http://twitter.com/web2py</div></td></tr></table></div></td></tr><tr><td><div><table><tr><td><div>Chat ao vivo</div></td></tr><tr><td><div>False</div></td></tr><tr><td><div>http://webchat.freenode.net/?channels=web2py</div></td></tr></table></div></td></tr></table></div></td></tr></table></div></td></tr></table></div></td></tr><tr><td style="font-weight:bold;vertical-align:top;">meta</td><td style="vertical-align:top;">:</td><td><div><table><tr><td style="font-weight:bold;vertical-align:top;">author</td><td style="vertical-align:top;">:</td><td><div>Your Name &lt;you@example.com&gt;</div></td></tr><tr><td style="font-weight:bold;vertical-align:top;">description</td><td style="vertical-align:top;">:</td><td><div>a cool new app</div></td></tr><tr><td style="font-weight:bold;vertical-align:top;">generator</td><td style="vertical-align:top;">:</td><td><div>Web2py Web Framework</div></td></tr><tr><td style="font-weight:bold;vertical-align:top;">keywords</td><td style="vertical-align:top;">:</td><td><div>web2py, python, framework</div></td></tr></table></div></td></tr><tr><td style="font-weight:bold;vertical-align:top;">models_to_run</td><td style="vertical-align:top;">:</td><td><div><table><tr><td><div>^\\w+\\.py$</div></td></tr><tr><td><div>^default/\\w+\\.py$</div></td></tr><tr><td><div>^default/index/\\w+\\.py$</div></td></tr></table></div></td></tr><tr><td style="font-weight:bold;vertical-align:top;">postprocessing</td><td style="vertical-align:top;">:</td><td><div><table></table></div></td></tr><tr><td style="font-weight:bold;vertical-align:top;">session_client</td><td style="vertical-align:top;">:</td><td><div>127.0.0.1</div></td></tr><tr><td style="font-weight:bold;vertical-align:top;">session_cookie_compression_level</td><td style="vertical-align:top;">:</td><td><div>None</div></td></tr><tr><td style="font-weight:bold;vertical-align:top;">session_cookie_expires</td><td style="vertical-align:top;">:</td><td><div>None</div></td></tr><tr><td style="font-weight:bold;vertical-align:top;">session_cookie_key</td><td style="vertical-align:top;">:</td><td><div>None</div></td></tr><tr><td style="font-weight:bold;vertical-align:top;">session_data_name</td><td style="vertical-align:top;">:</td><td><div>session_data_monitorart</div></td></tr><tr><td style="font-weight:bold;vertical-align:top;">session_file</td><td style="vertical-align:top;">:</td><td><div>&lt;open file &#x27;/home/wellington/SPIn/web2py/applications/monitorart/sessions/177/1b6/127.0.0.1-dd9268a8-f117-4cbc-bbe3-841851c8f71c&#x27;, mode &#x27;rb+&#x27; at 0xae0a2d30&gt;</div></td></tr><tr><td style="font-weight:bold;vertical-align:top;">session_filename</td><td style="vertical-align:top;">:</td><td><div>/home/wellington/SPIn/web2py/applications/monitorart/sessions/127.0.0.1-dd9268a8-f117-4cbc-bbe3-841851c8f71c</div></td></tr><tr><td style="font-weight:bold;vertical-align:top;">session_hash</td><td style="vertical-align:top;">:</td><td><div>b3626d0bdb1a2f78ade8f3e966916749</div></td></tr><tr><td style="font-weight:bold;vertical-align:top;">session_id</td><td style="vertical-align:top;">:</td><td><div>127.0.0.1-dd9268a8-f117-4cbc-bbe3-841851c8f71c</div></td></tr><tr><td style="font-weight:bold;vertical-align:top;">session_id_name</td><td style="vertical-align:top;">:</td><td><div>session_id_monitorart</div></td></tr><tr><td style="font-weight:bold;vertical-align:top;">session_locked</td><td style="vertical-align:top;">:</td><td><div>True</div></td></tr><tr><td style="font-weight:bold;vertical-align:top;">session_masterapp</td><td style="vertical-align:top;">:</td><td><div>monitorart</div></td></tr><tr><td style="font-weight:bold;vertical-align:top;">session_new</td><td style="vertical-align:top;">:</td><td><div>False</div></td></tr><tr><td style="font-weight:bold;vertical-align:top;">session_storage_type</td><td style="vertical-align:top;">:</td><td><div>file</div></td></tr><tr><td style="font-weight:bold;vertical-align:top;">status</td><td style="vertical-align:top;">:</td><td><div>200</div></td></tr><tr><td style="font-weight:bold;vertical-align:top;">subtitle</td><td style="vertical-align:top;">:</td><td><div></div></td></tr><tr><td style="font-weight:bold;vertical-align:top;">title</td><td style="vertical-align:top;">:</td><td><div>Monitorart</div></td></tr><tr><td style="font-weight:bold;vertical-align:top;">view</td><td style="vertical-align:top;">:</td><td><div>default/index.html</div></td></tr></table></div>'
tRp132
sS'locals'
p133
(dp134
g4
S"'/home/wellington/SPIn/web2py/applications/monitorart/views/default/index.html'"
p135
sg6
S'\'response.write(\\\'<!DOCTYPE html>\\\\n<html lang="en"...y.js\\\')}}", escape=False)\\n</script>\\n</body>\\n</html\''
p136
sssS'traceback'
p137
S'Traceback (most recent call last):\n  File "/home/wellington/SPIn/web2py/gluon/restricted.py", line 226, in restricted\n    ccode = compile2(code, layer)\n  File "/home/wellington/SPIn/web2py/gluon/restricted.py", line 209, in compile2\n    return compile(code.rstrip().replace(\'\\r\\n\', \'\\n\') + \'\\n\', layer, \'exec\')\n  File "/home/wellington/SPIn/web2py/applications/monitorart/views/default/index.html", line 8\n    <!-- Navigation -->\n    ^\nSyntaxError: invalid syntax\n'
p138
s.