(dp1
S'output'
p2
S"<type 'exceptions.SyntaxError'> invalid syntax (default/portal.html, line 16)"
p3
sS'layer'
p4
S'C:\\Users\\Jessica do Amaral\\Documents\\Web2py\\web2py\\applications\\monitorar\\views\\default/portal.html'
p5
sS'code'
p6
S'response.write(\'<!DOCTYPE html>\\r\\n<html lang="pt">\\r\\n\\r\\n<head>\\r\\n\\r\\n    <meta charset="utf-8">\\r\\n    <meta http-equiv="X-UA-Compatible" content="IE=edge">\\r\\n    <meta name="viewport" content="width=device-width, initial-scale=1">\\r\\n    <meta name="description" content="">\\r\\n    <meta name="author" content="">\\r\\n\\r\\n    <title>MonitorAR</title>\\r\\n\\r\\n    <!-- Bootstrap Core CSS -->\\r\\n    <link href="\', escape=False)\nresponse.write(URL(\'static\',\'portal/bower_components/bootstrap/dist/css/bootstrap.min.css\'))\nresponse.write(\'" rel="stylesheet">\\r\\n\\r\\n    <!-- MetisMenu CSS -->\\r\\n    <link href="\', escape=False)\nresponse.write(URL(\'static\',\'portal//bower_components/metisMenu/dist/metisMenu.min.css\'))\nresponse.write(\'" rel="stylesheet">\\r\\n\\r\\n    <!-- Timeline CSS -->\\r\\n    <link href="\', escape=False)\nresponse.write(URL(\'static\',\'portal/dist/css/timeline.css\'))\nresponse.write(\'" rel="stylesheet">\\r\\n\\r\\n    <!-- Custom CSS -->\\r\\n    <link href="\', escape=False)\nresponse.write(URL(\'static\',\'portal/dist/css/sb-admin-2.css\'))\nresponse.write(\'" rel="stylesheet">\\r\\n\\r\\n    <!-- Morris Charts CSS -->\\r\\n    <link href="\', escape=False)\nresponse.write(URL(\'static\',\'portal/bower_components/morrisjs/morris.css\'))\nresponse.write(\'" rel="stylesheet">\\r\\n\\r\\n    <!-- Custom Fonts -->\\r\\n    <link href="\', escape=False)\nresponse.write(URL(\'static\',\'portal/bower_components/font-awesome/css/font-awesome.min.css\'))\nresponse.write(\'" rel="stylesheet" type="text/css">\\r\\n\\r\\n    <!-- HTML5 Shim and Respond.js IE8 support of HTML5 elements and media queries -->\\r\\n    <!-- WARNING: Respond.js doesn\\\'t work if you view the page via file:// -->\\r\\n    <!--[if lt IE 9]>\\r\\n        <script src="https://oss.maxcdn.com/libs/html5shiv/3.7.0/html5shiv.js"></script>\\r\\n        <script src="https://oss.maxcdn.com/libs/respond.js/1.4.2/respond.min.js"></script>\\r\\n    <![endif]-->\\r\\n\\r\\n</head>\\r\\n\\r\\n<body>\\r\\n\\r\\n    <div id="wrapper">\\r\\n\\r\\n        <!-- Navigation -->\\r\\n        <nav class="navbar navbar-default navbar-static-top" role="navigation" style="margin-bottom: 0">\\r\\n            <div class="navbar-header">\\r\\n                <button type="button" class="navbar-toggle" data-toggle="collapse" data-target=".navbar-collapse">\\r\\n                    <span class="sr-only">Toggle navigation</span>\\r\\n                    <span class="icon-bar"></span>\\r\\n                    <span class="icon-bar"></span>\\r\\n                    <span class="icon-bar"></span>\\r\\n                </button>\\r\\n                <a class="navbar-brand" href="index.html">MonitorAR  Ola \', escape=False)\nresponse.write(nome)\nresponse.write(\'</a>\\r\\n            </div>\\r\\n            <!-- /.navbar-header -->\\r\\n\\r\\n            <ul class="nav navbar-top-links navbar-right">\\r\\n                <li class="dropdown">\\r\\n                    <a class="dropdown-toggle" data-toggle="dropdown" href="#">\\r\\n                        <i class="fa fa-user fa-fw"></i>  <i class="fa fa-caret-down"></i>\\r\\n                    </a>\\r\\n                    <ul class="dropdown-menu dropdown-user">\\r\\n                        <li><a href="#"><i class="fa fa-user fa-fw"></i> User Profile</a>\\r\\n                        </li>\\r\\n                        <li><a href="#"><i class="fa fa-gear fa-fw"></i> Settings</a>\\r\\n                        </li>\\r\\n                        <li class="divider"></li>\\r\\n                        <li><a href="\', escape=False)\nresponse.write(URL(c=\'default\', f=\'portal\',args=[\'logout\'])))\nresponse.write(\'"><i class="fa fa-sign-out fa-fw"></i> Logout</a>\\r\\n                        </li>\\r\\n                    </ul>\\r\\n                    <!-- /.dropdown-user -->\\r\\n                </li>\\r\\n                <!-- /.dropdown -->\\r\\n            </ul>\\r\\n            <!-- /.navbar-top-links -->\\r\\n\\r\\n            <div class="navbar-default sidebar" role="navigation">\\r\\n                <div class="sidebar-nav navbar-collapse">\\r\\n                    <ul class="nav" id="side-menu">\\r\\n                        \\r\\n                        <li>\\r\\n                            <a href="index.html"><i class="fa fa-dashboard fa-fw"></i> Paca Gorda</a>\\r\\n                        </li>\\r\\n                    \\r\\n                    </ul>\\r\\n                </div>\\r\\n                <!-- /.sidebar-collapse -->\\r\\n            </div>\\r\\n            <!-- /.navbar-static-side -->\\r\\n        </nav>\\r\\n\\r\\n        <div id="page-wrapper">\\r\\n            <div class="row">\\r\\n                <div class="col-lg-12">\\r\\n                    <h1 class="page-header">Gases</h1>\\r\\n                </div>\\r\\n                <!-- /.col-lg-12 -->\\r\\n            </div>\\r\\n            <!-- /.row -->\\r\\n            <div class="row">\\r\\n                <div class="col-lg-3 col-md-6">\\r\\n                    <div class="panel panel-primary">\\r\\n                        <div class="panel-heading">\\r\\n                            <div class="row">\\r\\n                                <div class="col-xs-3">\\r\\n                                    <i class="fa fa-comments fa-5x"></i>\\r\\n                                </div>\\r\\n                                <div class="col-xs-9 text-right">\\r\\n                                    <div class="huge">26</div>\\r\\n                                    <div>Metano</div>\\r\\n                                </div>\\r\\n                            </div>\\r\\n                        </div>\\r\\n                        <a href="#">\\r\\n                            <div class="panel-footer">\\r\\n                                <span class="pull-left">Ver detalhes</span>\\r\\n                                <span class="pull-right"><i class="fa fa-arrow-circle-right"></i></span>\\r\\n                                <div class="clearfix"></div>\\r\\n                            </div>\\r\\n                        </a>\\r\\n                    </div>\\r\\n                </div>\\r\\n\\r\\n                <div class="col-lg-3 col-md-6">\\r\\n                    <div class="panel panel-green">\\r\\n                        <div class="panel-heading">\\r\\n                            <div class="row">\\r\\n                                <div class="col-xs-3">\\r\\n                                    <i class="fa fa-tasks fa-5x"></i>\\r\\n                                </div>\\r\\n                                <div class="col-xs-9 text-right">\\r\\n                                    <div class="huge">12</div>\\r\\n                                    <div>Mon\\xc3\\xb3xido de Carbono</div>\\r\\n                                </div>\\r\\n                            </div>\\r\\n                        </div>\\r\\n                        <a href="#">\\r\\n                            <div class="panel-footer">\\r\\n                                <span class="pull-left">Ver Detalhes</span>\\r\\n                                <span class="pull-right"><i class="fa fa-arrow-circle-right"></i></span>\\r\\n                                <div class="clearfix"></div>\\r\\n                            </div>\\r\\n                        </a>\\r\\n                    </div>\\r\\n                </div>\\r\\n\\r\\n            </div>\\r\\n            <!-- /.row -->\\r\\n            <div class="row">\\r\\n                <div class="col-lg-8">\\r\\n                    <div class="panel panel-default">\\r\\n                        <div class="panel-heading">\\r\\n                            <i class="fa fa-bar-chart-o fa-fw"></i> Varia\\xc3\\xa7\\xc3\\xa3o da quantidade de poluentes\\r\\n                            \\r\\n                        </div>\\r\\n                        <!-- /.panel-heading -->\\r\\n                        <div class="panel-body">\\r\\n                            <div id="morris-area-chart"></div>\\r\\n                        </div>\\r\\n                        <!-- /.panel-body -->\\r\\n                    </div>\\r\\n                    <!-- /.panel -->\\r\\n                    <div class="panel panel-default">\\r\\n                        <div class="panel-heading">\\r\\n                            <i class="fa fa-bar-chart-o fa-fw"></i> Quantidades de poluentes\\r\\n                        </div>\\r\\n                        <!-- /.panel-heading -->\\r\\n                        <div class="panel-body">\\r\\n                            <div class="row">\\r\\n                                <div class="col-lg-4">\\r\\n                                    <div class="table-responsive">\\r\\n                                        <table class="table table-bordered table-hover table-striped">\\r\\n                                            <thead>\\r\\n                                                <tr>\\r\\n                                                    <th>Data</th>\\r\\n                                                    <th>Quantidade</th>\\r\\n                                                </tr>\\r\\n                                            </thead>\\r\\n                                            <tbody>\\r\\n                                                <tr>\\r\\n                                                    <td>10/21/2013</td>\\r\\n                                                    <td>3326</td>\\r\\n                                                </tr>\\r\\n                                                <tr>\\r\\n                                                    <td>10/21/2013</td>\\r\\n                                                    <td>3325</td>\\r\\n                                                </tr>\\r\\n                                                <tr>\\r\\n                                                    <td>10/21/2013</td>\\r\\n                                                    <td>3324</td>\\r\\n                                                    \\r\\n                                                </tr>\\r\\n                                                <tr>\\r\\n                                                    <td>10/21/2013</td>\\r\\n                                                     <td>3323</td>\\r\\n                                                </tr>\\r\\n                                                <tr>\\r\\n                                                    <td>10/21/2013</td>\\r\\n                                                    <td>3322</td>\\r\\n                                                </tr>\\r\\n                                                <tr>\\r\\n                                                    <td>10/21/2013</td>\\r\\n                                                    <td>3321</td>\\r\\n                                                </tr>\\r\\n                                                <tr>\\r\\n                                                    <td>10/21/2013</td>\\r\\n                                                    <td>3320</td>\\r\\n                                                </tr>\\r\\n                                                <tr>\\r\\n                                                    <td>10/21/2013</td>\\r\\n                                                    <td>3319</td>\\r\\n                                                </tr>\\r\\n                                            </tbody>\\r\\n                                        </table>\\r\\n                                    </div>\\r\\n                                    <!-- /.table-responsive -->\\r\\n                                </div>\\r\\n                                <!-- /.col-lg-4 (nested) -->\\r\\n                                <div class="col-lg-8">\\r\\n                                    <div id="morris-bar-chart"></div>\\r\\n                                </div>\\r\\n                                <!-- /.col-lg-8 (nested) -->\\r\\n                            </div>\\r\\n                            <!-- /.row -->\\r\\n                        </div>\\r\\n                        <!-- /.panel-body -->\\r\\n                    </div>\\r\\n                    <!-- /.panel -->\\r\\n                    <div class="panel panel-default">\\r\\n                        <div class="panel-heading">\\r\\n                            <i class="fa fa-clock-o fa-fw"></i> Curiosidades\\r\\n                        </div>\\r\\n                        <!-- /.panel-heading -->\\r\\n                        <div class="panel-body">\\r\\n                            <ul class="timeline">\\r\\n                                <li>\\r\\n                                    <div class="timeline-badge"><i class="fa fa-check"></i>\\r\\n                                    </div>\\r\\n                                    <div class="timeline-panel">\\r\\n                                        <div class="timeline-heading">\\r\\n                                            <h4 class="timeline-title">Lorem ipsum dolor</h4>\\r\\n                                            \\r\\n                                        </div>\\r\\n                                        <div class="timeline-body">\\r\\n                                            <p>Lorem ipsum dolor sit amet, consectetur adipisicing elit. Libero laboriosam dolor perspiciatis omnis exercitationem. Beatae, officia pariatur? Est cum veniam excepturi. Maiores praesentium, porro voluptas suscipit facere rem dicta, debitis.</p>\\r\\n                                        </div>\\r\\n                                    </div>\\r\\n                                </li>\\r\\n                                <li class="timeline-inverted">\\r\\n                                    <div class="timeline-badge warning"><i class="fa fa-credit-card"></i>\\r\\n                                    </div>\\r\\n                                    <div class="timeline-panel">\\r\\n                                        <div class="timeline-heading">\\r\\n                                            <h4 class="timeline-title">Lorem ipsum dolor</h4>\\r\\n                                        </div>\\r\\n                                        <div class="timeline-body">\\r\\n                                            <p>Lorem ipsum dolor sit amet, consectetur adipisicing elit. Autem dolorem quibusdam, tenetur commodi provident cumque magni voluptatem libero, quis rerum. Fugiat esse debitis optio, tempore. Animi officiis alias, officia repellendus.</p>\\r\\n                                            <p>Lorem ipsum dolor sit amet, consectetur adipisicing elit. Laudantium maiores odit qui est tempora eos, nostrum provident explicabo dignissimos debitis vel! Adipisci eius voluptates, ad aut recusandae minus eaque facere.</p>\\r\\n                                        </div>\\r\\n                                    </div>\\r\\n                                </li>\\r\\n                               \\r\\n                            </ul>\\r\\n                        </div>\\r\\n                        <!-- /.panel-body -->\\r\\n                    </div>\\r\\n                    <!-- /.panel -->\\r\\n                </div>\\r\\n                <!-- /.col-lg-8 -->\\r\\n                <div class="col-lg-4">\\r\\n                    <div class="panel panel-default">\\r\\n                        <div class="panel-heading">\\r\\n                            <i class="fa fa-bell fa-fw"></i> Painel de Notifica\\xc3\\xa7\\xc3\\xb5es\\r\\n                        </div>\\r\\n                        <!-- /.panel-heading -->\\r\\n                        <div class="panel-body">\\r\\n                            <div class="list-group">\\r\\n                                <a href="#" class="list-group-item">\\r\\n                                    <i class="fa fa-comment fa-fw"></i> Coment\\xc3\\xa1rios\\r\\n                                    \\r\\n                                    </span>\\r\\n                                </a>\\r\\n                                <a href="#" class="list-group-item">\\r\\n                                    <i class="fa fa-twitter fa-fw"></i> Seguidores\\r\\n                                    \\r\\n                                    </span>\\r\\n                                </a>\\r\\n                            </div>\\r\\n                            <!-- /.list-group -->\\r\\n                            \\r\\n                        </div>\\r\\n                        <!-- /.panel-body -->\\r\\n                    </div>\\r\\n                    <!-- /.panel -->\\r\\n                    <div class="panel panel-default">\\r\\n                        <div class="panel-heading">\\r\\n                            <i class="fa fa-bar-chart-o fa-fw"></i> Gr\\xc3\\xa1fico de porcentagem\\r\\n                        </div>\\r\\n                        <div class="panel-body">\\r\\n                            <div id="morris-donut-chart"></div>\\r\\n                        </div>\\r\\n                        <!-- /.panel-body -->\\r\\n                    </div>\\r\\n                    <!-- /.panel -->\\r\\n                    \\r\\n    <!-- /#wrapper -->\\r\\n\\r\\n    <!-- jQuery -->\\r\\n    <script src="\', escape=False)\nresponse.write(URL(\'static\',\'portal/bower_components/jquery/dist/jquery.min.js\'))\nresponse.write(\'"></script>\\r\\n\\r\\n    <!-- Bootstrap Core JavaScript -->\\r\\n    <script src="\', escape=False)\nresponse.write(URL(\'static\',\'portal/bower_components/bootstrap/dist/js/bootstrap.min.js\'))\nresponse.write(\'"></script>\\r\\n\\r\\n    <!-- Metis Menu Plugin JavaScript -->\\r\\n    <script src="\', escape=False)\nresponse.write(URL(\'static\',\'portal/bower_components/metisMenu/dist/metisMenu.min.js\'))\nresponse.write(\'"></script>\\r\\n\\r\\n    <!-- Morris Charts JavaScript -->\\r\\n    <script src="\', escape=False)\nresponse.write(URL(\'static\',\'portal/bower_components/raphael/raphael-min.js\'))\nresponse.write(\'"></script>\\r\\n    <script src="\', escape=False)\nresponse.write(URL(\'static\',\'portal/bower_components/morrisjs/morris.min.js\'))\nresponse.write(\'"></script>\\r\\n    <script src="\', escape=False)\nresponse.write(URL(\'static\',\'portal/js/morris-data.js\'))\nresponse.write(\'"></script>\\r\\n\\r\\n    <!-- Custom Theme JavaScript -->\\r\\n    <script src="\', escape=False)\nresponse.write(URL(\'static\',\'portal/dist/js/sb-admin-2.js\'))\nresponse.write(\'"></script>\\r\\n\\r\\n</body>\\r\\n\\r\\n</html>\\r\\n\', escape=False)'
p7
sS'snapshot'
p8
(dp9
S'exception'
p10
(dp11
S'__getslice__'
p12
S"<method-wrapper '__getslice__' of exceptions.SyntaxError object>"
p13
sS'text'
p14
S'"response.write(URL(c=\'default\', f=\'portal\',args=[\'logout\'])))\\n"'
p15
sS'__str__'
p16
S"<method-wrapper '__str__' of exceptions.SyntaxError object>"
p17
sS'__reduce__'
p18
S'<built-in method __reduce__ of exceptions.SyntaxError object>'
p19
sS'__dict__'
p20
S'{}'
p21
sS'__sizeof__'
p22
S'<built-in method __sizeof__ of exceptions.SyntaxError object>'
p23
sS'__init__'
p24
S"<method-wrapper '__init__' of exceptions.SyntaxError object>"
p25
sS'__setattr__'
p26
S"<method-wrapper '__setattr__' of exceptions.SyntaxError object>"
p27
sS'__reduce_ex__'
p28
S'<built-in method __reduce_ex__ of exceptions.SyntaxError object>'
p29
sS'__new__'
p30
S'<built-in method __new__ of type object>'
p31
sS'__format__'
p32
S'<built-in method __format__ of exceptions.SyntaxError object>'
p33
sS'__class__'
p34
S"<type 'exceptions.SyntaxError'>"
p35
sS'filename'
p36
S"r'C:\\Users\\Jessica do Amaral\\Documents\\Web2py\\web2py\\applications\\monitorar\\views\\default/portal.html'"
p37
sS'lineno'
p38
S'16'
p39
sS'msg'
p40
S"'invalid syntax'"
p41
sS'__doc__'
p42
S"'Invalid syntax.'"
p43
sS'__getitem__'
p44
S"<method-wrapper '__getitem__' of exceptions.SyntaxError object>"
p45
sS'__setstate__'
p46
S'<built-in method __setstate__ of exceptions.SyntaxError object>'
p47
sS'__getattribute__'
p48
S"<method-wrapper '__getattribute__' of exceptions.SyntaxError object>"
p49
sS'print_file_and_line'
p50
S'None'
p51
sS'args'
p52
S'(\'invalid syntax\', (r\'C:\\Users\\Jessica do Amaral\\Documents\\Web2py\\web2py\\applications\\monitorar\\views\\default/portal.html\', 16, 61, "response.write(URL(c=\'default\', f=\'portal\',args=[\'logout\'])))\\n"))'
p53
sS'__subclasshook__'
p54
S'<built-in method __subclasshook__ of type object>'
p55
sS'offset'
p56
S'61'
p57
sS'__unicode__'
p58
S'<built-in method __unicode__ of exceptions.SyntaxError object>'
p59
sS'__delattr__'
p60
S"<method-wrapper '__delattr__' of exceptions.SyntaxError object>"
p61
sS'__repr__'
p62
S"<method-wrapper '__repr__' of exceptions.SyntaxError object>"
p63
sS'__hash__'
p64
S"<method-wrapper '__hash__' of exceptions.SyntaxError object>"
p65
ssS'evalue'
p66
S'invalid syntax (default/portal.html, line 16)'
p67
sS'request'
p68
cgluon.html
XML_unpickle
p69
(S'suX\x00\x00<div><table><tr><td style="font-weight:bold;vertical-align:top;">ajax</td><td style="vertical-align:top;">:</td><td><div>False</div></td></tr><tr><td style="font-weight:bold;vertical-align:top;">application</td><td style="vertical-align:top;">:</td><td><div>monitorar</div></td></tr><tr><td style="font-weight:bold;vertical-align:top;">args</td><td style="vertical-align:top;">:</td><td><div><table></table></div></td></tr><tr><td style="font-weight:bold;vertical-align:top;">cid</td><td style="vertical-align:top;">:</td><td><div>None</div></td></tr><tr><td style="font-weight:bold;vertical-align:top;">client</td><td style="vertical-align:top;">:</td><td><div>127.0.0.1</div></td></tr><tr><td style="font-weight:bold;vertical-align:top;">controller</td><td style="vertical-align:top;">:</td><td><div>default</div></td></tr><tr><td style="font-weight:bold;vertical-align:top;">cookies</td><td style="vertical-align:top;">:</td><td><div><table><tr><td style="font-weight:bold;vertical-align:top;">session_id_monitorar</td><td style="vertical-align:top;">:</td><td><div>127.0.0.1-19336f25-3ee4-4416-9755-b785f219202c<table><tr><td style="font-weight:bold;vertical-align:top;">comment</td><td style="vertical-align:top;">:</td><td><div></div></td></tr><tr><td style="font-weight:bold;vertical-align:top;">domain</td><td style="vertical-align:top;">:</td><td><div></div></td></tr><tr><td style="font-weight:bold;vertical-align:top;">expires</td><td style="vertical-align:top;">:</td><td><div></div></td></tr><tr><td style="font-weight:bold;vertical-align:top;">httponly</td><td style="vertical-align:top;">:</td><td><div></div></td></tr><tr><td style="font-weight:bold;vertical-align:top;">max-age</td><td style="vertical-align:top;">:</td><td><div></div></td></tr><tr><td style="font-weight:bold;vertical-align:top;">path</td><td style="vertical-align:top;">:</td><td><div></div></td></tr><tr><td style="font-weight:bold;vertical-align:top;">secure</td><td style="vertical-align:top;">:</td><td><div></div></td></tr><tr><td style="font-weight:bold;vertical-align:top;">version</td><td style="vertical-align:top;">:</td><td><div></div></td></tr></table></div></td></tr><tr><td style="font-weight:bold;vertical-align:top;">session_id_welcome</td><td style="vertical-align:top;">:</td><td><div>127.0.0.1-ea12ce68-bbf7-41fb-8b6c-9adfc44f8303<table><tr><td style="font-weight:bold;vertical-align:top;">comment</td><td style="vertical-align:top;">:</td><td><div></div></td></tr><tr><td style="font-weight:bold;vertical-align:top;">domain</td><td style="vertical-align:top;">:</td><td><div></div></td></tr><tr><td style="font-weight:bold;vertical-align:top;">expires</td><td style="vertical-align:top;">:</td><td><div></div></td></tr><tr><td style="font-weight:bold;vertical-align:top;">httponly</td><td style="vertical-align:top;">:</td><td><div></div></td></tr><tr><td style="font-weight:bold;vertical-align:top;">max-age</td><td style="vertical-align:top;">:</td><td><div></div></td></tr><tr><td style="font-weight:bold;vertical-align:top;">path</td><td style="vertical-align:top;">:</td><td><div></div></td></tr><tr><td style="font-weight:bold;vertical-align:top;">secure</td><td style="vertical-align:top;">:</td><td><div></div></td></tr><tr><td style="font-weight:bold;vertical-align:top;">version</td><td style="vertical-align:top;">:</td><td><div></div></td></tr></table></div></td></tr></table></div></td></tr><tr><td style="font-weight:bold;vertical-align:top;">env</td><td style="vertical-align:top;">:</td><td><div><table><tr><td style="font-weight:bold;vertical-align:top;">HTTP_ACCEPT</td><td style="vertical-align:top;">:</td><td><div>text/html,application/xhtml+xml,application/xml;q=0.9,image/webp,*/*;q=0.8</div></td></tr><tr><td style="font-weight:bold;vertical-align:top;">HTTP_ACCEPT_ENCODING</td><td style="vertical-align:top;">:</td><td><div>gzip, deflate, sdch</div></td></tr><tr><td style="font-weight:bold;vertical-align:top;">HTTP_ACCEPT_LANGUAGE</td><td style="vertical-align:top;">:</td><td><div>pt-BR,pt;q=0.8,en-US;q=0.6,en;q=0.4</div></td></tr><tr><td style="font-weight:bold;vertical-align:top;">HTTP_CONNECTION</td><td style="vertical-align:top;">:</td><td><div>keep-alive</div></td></tr><tr><td style="font-weight:bold;vertical-align:top;">HTTP_COOKIE</td><td style="vertical-align:top;">:</td><td><div>session_id_welcome=127.0.0.1-ea12ce68-bbf7-41fb-8b6c-9adfc44f8303; session_id_monitorar=127.0.0.1-19336f25-3ee4-4416-9755-b785f219202c</div></td></tr><tr><td style="font-weight:bold;vertical-align:top;">HTTP_HOST</td><td style="vertical-align:top;">:</td><td><div>127.0.0.1:8000</div></td></tr><tr><td style="font-weight:bold;vertical-align:top;">HTTP_UPGRADE_INSECURE_REQUESTS</td><td style="vertical-align:top;">:</td><td><div>1</div></td></tr><tr><td style="font-weight:bold;vertical-align:top;">HTTP_USER_AGENT</td><td style="vertical-align:top;">:</td><td><div>Mozilla/5.0 (Windows NT 6.3; WOW64) AppleWebKit/537.36 (KHTML, like Gecko) Chrome/45.0.2454.101 Safari/537.36</div></td></tr><tr><td style="font-weight:bold;vertical-align:top;">PATH_INFO</td><td style="vertical-align:top;">:</td><td><div>/monitorar/default/portal</div></td></tr><tr><td style="font-weight:bold;vertical-align:top;">QUERY_STRING</td><td style="vertical-align:top;">:</td><td><div></div></td></tr><tr><td style="font-weight:bold;vertical-align:top;">REMOTE_ADDR</td><td style="vertical-align:top;">:</td><td><div>127.0.0.1</div></td></tr><tr><td style="font-weight:bold;vertical-align:top;">REMOTE_PORT</td><td style="vertical-align:top;">:</td><td><div>55139</div></td></tr><tr><td style="font-weight:bold;vertical-align:top;">REQUEST_METHOD</td><td style="vertical-align:top;">:</td><td><div>GET</div></td></tr><tr><td style="font-weight:bold;vertical-align:top;">SCRIPT_NAME</td><td style="vertical-align:top;">:</td><td><div></div></td></tr><tr><td style="font-weight:bold;vertical-align:top;">SERVER_NAME</td><td style="vertical-align:top;">:</td><td><div>jessica</div></td></tr><tr><td style="font-weight:bold;vertical-align:top;">SERVER_PORT</td><td style="vertical-align:top;">:</td><td><div>8000</div></td></tr><tr><td style="font-weight:bold;vertical-align:top;">SERVER_PROTOCOL</td><td style="vertical-align:top;">:</td><td><div>HTTP/1.1</div></td></tr><tr><td style="font-weight:bold;vertical-align:top;">SERVER_SOFTWARE</td><td style="vertical-align:top;">:</td><td><div>Rocket 1.2.6</div></td></tr><tr><td style="font-weight:bold;vertical-align:top;">app_folders</td><td style="vertical-align:top;">:</td><td><div>set([&#x27;C:\\\\Users\\\\Jessica do Amaral\\\\Documents\\\\Web2py\\\\web2py\\\\applications\\\\welcome\\\\&#x27;, &#x27;C:\\\\Users\\\\Jessica do Amaral\\\\Documents\\\\Web2py\\\\web2py\\\\applications\\\\monitorar\\\\&#x27;])</div></td></tr><tr><td style="font-weight:bold;vertical-align:top;">applications_parent</td><td style="vertical-align:top;">:</td><td><div>C:\\Users\\Jessica do Amaral\\Documents\\Web2py\\web2py</div></td></tr><tr><td style="font-weight:bold;vertical-align:top;">cmd_args</td><td style="vertical-align:top;">:</td><td><div><table></table></div></td></tr><tr><td style="font-weight:bold;vertical-align:top;">cmd_options</td><td style="vertical-align:top;">:</td><td><div>&lt;Values at 0x28855f8: {&#x27;verbose&#x27;: False, &#x27;ip&#x27;: &#x27;127.0.0.1&#x27;, &#x27;debuglevel&#x27;: 30, &#x27;with_scheduler&#x27;: False, &#x27;ips&#x27;: [&#x27;fe80::4d6c:50ca:c43f:41f9%4&#x27;, &#x27;127.0.0.1&#x27;], &#x27;shutdown_timeout&#x27;: 5, &#x27;taskbar&#x27;: False, &#x27;with_coverage&#x27;: False, &#x27;scheduler_groups&#x27;: None, &#x27;port&#x27;: 8000, &#x27;maxthreads&#x27;: None, &#x27;softcron&#x27;: False, &#x27;server_name&#x27;: &#x27;jessica&#x27;, &#x27;bpython&#x27;: False, &#x27;nogui&#x27;: False, &#x27;pid_filename&#x27;: &#x27;httpserver.pid&#x27;, &#x27;print_errors&#x27;: False, &#x27;extcron&#x27;: False, &#x27;runcron&#x27;: False, &#x27;run_system_tests&#x27;: False, &#x27;test&#x27;: None, &#x27;folder&#x27;: &#x27;C:\\\\Users\\\\Jessica do Amaral\\\\Documents\\\\Web2py\\\\web2py&#x27;, &#x27;config&#x27;: &#x27;&#x27;, &#x27;minthreads&#x27;: None, &#x27;shell&#x27;: None, &#x27;run&#x27;: &#x27;&#x27;, &#x27;log_filename&#x27;: &#x27;httpserver.log&#x27;, &#x27;profiler_dir&#x27;: None, &#x27;args&#x27;: [&#x27;&#x27;], &#x27;socket_timeout&#x27;: 5, &#x27;ssl_ca_certificate&#x27;: None, &#x27;scheduler&#x27;: None, &#x27;interfaces&#x27;: None, &#x27;ssl_private_key&#x27;: &#x27;&#x27;, &#x27;gae&#x27;: None, &#x27;password&#x27;: &#x27;&lt;ask&gt;&#x27;, &#x27;request_queue_size&#x27;: 5, &#x27;ssl_certificate&#x27;: &#x27;&#x27;, &#x27;cronjob&#x27;: False, &#x27;numthreads&#x27;: None, &#x27;quiet&#x27;: False, &#x27;import_models&#x27;: False, &#x27;timeout&#x27;: 10, &#x27;plain&#x27;: False, &#x27;nobanner&#x27;: False}&gt;</div></td></tr><tr><td style="font-weight:bold;vertical-align:top;">db_sessions</td><td style="vertical-align:top;">:</td><td><div>set([])</div></td></tr><tr><td style="font-weight:bold;vertical-align:top;">debugging</td><td style="vertical-align:top;">:</td><td><div>False</div></td></tr><tr><td style="font-weight:bold;vertical-align:top;">gluon_parent</td><td style="vertical-align:top;">:</td><td><div>C:\\Users\\Jessica do Amaral\\Documents\\Web2py\\web2py</div></td></tr><tr><td style="font-weight:bold;vertical-align:top;">http_accept</td><td style="vertical-align:top;">:</td><td><div>text/html,application/xhtml+xml,application/xml;q=0.9,image/webp,*/*;q=0.8</div></td></tr><tr><td style="font-weight:bold;vertical-align:top;">http_accept_encoding</td><td style="vertical-align:top;">:</td><td><div>gzip, deflate, sdch</div></td></tr><tr><td style="font-weight:bold;vertical-align:top;">http_accept_language</td><td style="vertical-align:top;">:</td><td><div>pt-BR,pt;q=0.8,en-US;q=0.6,en;q=0.4</div></td></tr><tr><td style="font-weight:bold;vertical-align:top;">http_connection</td><td style="vertical-align:top;">:</td><td><div>keep-alive</div></td></tr><tr><td style="font-weight:bold;vertical-align:top;">http_cookie</td><td style="vertical-align:top;">:</td><td><div>session_id_welcome=127.0.0.1-ea12ce68-bbf7-41fb-8b6c-9adfc44f8303; session_id_monitorar=127.0.0.1-19336f25-3ee4-4416-9755-b785f219202c</div></td></tr><tr><td style="font-weight:bold;vertical-align:top;">http_host</td><td style="vertical-align:top;">:</td><td><div>127.0.0.1:8000</div></td></tr><tr><td style="font-weight:bold;vertical-align:top;">http_upgrade_insecure_requests</td><td style="vertical-align:top;">:</td><td><div>1</div></td></tr><tr><td style="font-weight:bold;vertical-align:top;">http_user_agent</td><td style="vertical-align:top;">:</td><td><div>Mozilla/5.0 (Windows NT 6.3; WOW64) AppleWebKit/537.36 (KHTML, like Gecko) Chrome/45.0.2454.101 Safari/537.36</div></td></tr><tr><td style="font-weight:bold;vertical-align:top;">is_jython</td><td style="vertical-align:top;">:</td><td><div>False</div></td></tr><tr><td style="font-weight:bold;vertical-align:top;">is_pypy</td><td style="vertical-align:top;">:</td><td><div>False</div></td></tr><tr><td style="font-weight:bold;vertical-align:top;">is_source</td><td style="vertical-align:top;">:</td><td><div>False</div></td></tr><tr><td style="font-weight:bold;vertical-align:top;">local_hosts</td><td style="vertical-align:top;">:</td><td><div><table><tr><td><div>2001:0:9d38:6abd:c40:24a7:f5ff:95bb</div></td></tr><tr><td><div>10.0.106.68</div></td></tr><tr><td><div>jessica</div></td></tr><tr><td><div>fe80::4d6c:50ca:c43f:41f9%4</div></td></tr><tr><td><div>::ffff:127.0.0.1</div></td></tr><tr><td><div>::1</div></td></tr><tr><td><div>127.0.0.1</div></td></tr><tr><td><div>jessica.wll-inatel.inatel.br</div></td></tr><tr><td><div>fe80::c40:24a7:f5ff:95bb%7</div></td></tr></table></div></td></tr><tr><td style="font-weight:bold;vertical-align:top;">path_info</td><td style="vertical-align:top;">:</td><td><div>/monitorar/default/portal</div></td></tr><tr><td style="font-weight:bold;vertical-align:top;">query_string</td><td style="vertical-align:top;">:</td><td><div></div></td></tr><tr><td style="font-weight:bold;vertical-align:top;">remote_addr</td><td style="vertical-align:top;">:</td><td><div>127.0.0.1</div></td></tr><tr><td style="font-weight:bold;vertical-align:top;">remote_port</td><td style="vertical-align:top;">:</td><td><div>55139</div></td></tr><tr><td style="font-weight:bold;vertical-align:top;">request_method</td><td style="vertical-align:top;">:</td><td><div>GET</div></td></tr><tr><td style="font-weight:bold;vertical-align:top;">request_uri</td><td style="vertical-align:top;">:</td><td><div>/monitorar/default/portal</div></td></tr><tr><td style="font-weight:bold;vertical-align:top;">script_name</td><td style="vertical-align:top;">:</td><td><div></div></td></tr><tr><td style="font-weight:bold;vertical-align:top;">server_name</td><td style="vertical-align:top;">:</td><td><div>jessica</div></td></tr><tr><td style="font-weight:bold;vertical-align:top;">server_port</td><td style="vertical-align:top;">:</td><td><div>8000</div></td></tr><tr><td style="font-weight:bold;vertical-align:top;">server_protocol</td><td style="vertical-align:top;">:</td><td><div>HTTP/1.1</div></td></tr><tr><td style="font-weight:bold;vertical-align:top;">server_software</td><td style="vertical-align:top;">:</td><td><div>Rocket 1.2.6</div></td></tr><tr><td style="font-weight:bold;vertical-align:top;">web2py_path</td><td style="vertical-align:top;">:</td><td><div>C:\\Users\\Jessica do Amaral\\Documents\\Web2py\\web2py</div></td></tr><tr><td style="font-weight:bold;vertical-align:top;">web2py_version</td><td style="vertical-align:top;">:</td><td><div>2.12.3-stable+timestamp.2015.08.19.00.18.03</div></td></tr><tr><td style="font-weight:bold;vertical-align:top;">wsgi.errors</td><td style="vertical-align:top;">:</td><td><div>&lt;open file &#x27;&lt;stderr&gt;&#x27;, mode &#x27;w&#x27; at 0x01C7D0D0&gt;</div></td></tr><tr><td style="font-weight:bold;vertical-align:top;">wsgi.file_wrapper</td><td style="vertical-align:top;">:</td><td><div>&lt;class wsgiref.util.FileWrapper at 0x01FF5960&gt;</div></td></tr><tr><td style="font-weight:bold;vertical-align:top;">wsgi.input</td><td style="vertical-align:top;">:</td><td><div>&lt;socket._fileobject object at 0x039F0D70&gt;</div></td></tr><tr><td style="font-weight:bold;vertical-align:top;">wsgi.multiprocess</td><td style="vertical-align:top;">:</td><td><div>False</div></td></tr><tr><td style="font-weight:bold;vertical-align:top;">wsgi.multithread</td><td style="vertical-align:top;">:</td><td><div>True</div></td></tr><tr><td style="font-weight:bold;vertical-align:top;">wsgi.run_once</td><td style="vertical-align:top;">:</td><td><div>False</div></td></tr><tr><td style="font-weight:bold;vertical-align:top;">wsgi.url_scheme</td><td style="vertical-align:top;">:</td><td><div>http</div></td></tr><tr><td style="font-weight:bold;vertical-align:top;">wsgi.version</td><td style="vertical-align:top;">:</td><td><div><table><tr><td><div>1</div></td></tr><tr><td><div>0</div></td></tr></table></div></td></tr><tr><td style="font-weight:bold;vertical-align:top;">wsgi_errors</td><td style="vertical-align:top;">:</td><td><div>&lt;open file &#x27;&lt;stderr&gt;&#x27;, mode &#x27;w&#x27; at 0x01C7D0D0&gt;</div></td></tr><tr><td style="font-weight:bold;vertical-align:top;">wsgi_file_wrapper</td><td style="vertical-align:top;">:</td><td><div>&lt;class wsgiref.util.FileWrapper at 0x01FF5960&gt;</div></td></tr><tr><td style="font-weight:bold;vertical-align:top;">wsgi_input</td><td style="vertical-align:top;">:</td><td><div>&lt;socket._fileobject object at 0x039F0D70&gt;</div></td></tr><tr><td style="font-weight:bold;vertical-align:top;">wsgi_multiprocess</td><td style="vertical-align:top;">:</td><td><div>False</div></td></tr><tr><td style="font-weight:bold;vertical-align:top;">wsgi_multithread</td><td style="vertical-align:top;">:</td><td><div>True</div></td></tr><tr><td style="font-weight:bold;vertical-align:top;">wsgi_run_once</td><td style="vertical-align:top;">:</td><td><div>False</div></td></tr><tr><td style="font-weight:bold;vertical-align:top;">wsgi_url_scheme</td><td style="vertical-align:top;">:</td><td><div>http</div></td></tr><tr><td style="font-weight:bold;vertical-align:top;">wsgi_version</td><td style="vertical-align:top;">:</td><td><div><table><tr><td><div>1</div></td></tr><tr><td><div>0</div></td></tr></table></div></td></tr></table></div></td></tr><tr><td style="font-weight:bold;vertical-align:top;">extension</td><td style="vertical-align:top;">:</td><td><div>html</div></td></tr><tr><td style="font-weight:bold;vertical-align:top;">folder</td><td style="vertical-align:top;">:</td><td><div>C:\\Users\\Jessica do Amaral\\Documents\\Web2py\\web2py\\applications\\monitorar\\</div></td></tr><tr><td style="font-weight:bold;vertical-align:top;">function</td><td style="vertical-align:top;">:</td><td><div>portal</div></td></tr><tr><td style="font-weight:bold;vertical-align:top;">global_settings</td><td style="vertical-align:top;">:</td><td><div><table><tr><td style="font-weight:bold;vertical-align:top;">app_folders</td><td style="vertical-align:top;">:</td><td><div>set([&#x27;C:\\\\Users\\\\Jessica do Amaral\\\\Documents\\\\Web2py\\\\web2py\\\\applications\\\\welcome\\\\&#x27;, &#x27;C:\\\\Users\\\\Jessica do Amaral\\\\Documents\\\\Web2py\\\\web2py\\\\applications\\\\monitorar\\\\&#x27;])</div></td></tr><tr><td style="font-weight:bold;vertical-align:top;">applications_parent</td><td style="vertical-align:top;">:</td><td><div>C:\\Users\\Jessica do Amaral\\Documents\\Web2py\\web2py</div></td></tr><tr><td style="font-weight:bold;vertical-align:top;">cmd_args</td><td style="vertical-align:top;">:</td><td><div><table></table></div></td></tr><tr><td style="font-weight:bold;vertical-align:top;">cmd_options</td><td style="vertical-align:top;">:</td><td><div>&lt;Values at 0x28855f8: {&#x27;verbose&#x27;: False, &#x27;ip&#x27;: &#x27;127.0.0.1&#x27;, &#x27;debuglevel&#x27;: 30, &#x27;with_scheduler&#x27;: False, &#x27;ips&#x27;: [&#x27;fe80::4d6c:50ca:c43f:41f9%4&#x27;, &#x27;127.0.0.1&#x27;], &#x27;shutdown_timeout&#x27;: 5, &#x27;taskbar&#x27;: False, &#x27;with_coverage&#x27;: False, &#x27;scheduler_groups&#x27;: None, &#x27;port&#x27;: 8000, &#x27;maxthreads&#x27;: None, &#x27;softcron&#x27;: False, &#x27;server_name&#x27;: &#x27;jessica&#x27;, &#x27;bpython&#x27;: False, &#x27;nogui&#x27;: False, &#x27;pid_filename&#x27;: &#x27;httpserver.pid&#x27;, &#x27;print_errors&#x27;: False, &#x27;extcron&#x27;: False, &#x27;runcron&#x27;: False, &#x27;run_system_tests&#x27;: False, &#x27;test&#x27;: None, &#x27;folder&#x27;: &#x27;C:\\\\Users\\\\Jessica do Amaral\\\\Documents\\\\Web2py\\\\web2py&#x27;, &#x27;config&#x27;: &#x27;&#x27;, &#x27;minthreads&#x27;: None, &#x27;shell&#x27;: None, &#x27;run&#x27;: &#x27;&#x27;, &#x27;log_filename&#x27;: &#x27;httpserver.log&#x27;, &#x27;profiler_dir&#x27;: None, &#x27;args&#x27;: [&#x27;&#x27;], &#x27;socket_timeout&#x27;: 5, &#x27;ssl_ca_certificate&#x27;: None, &#x27;scheduler&#x27;: None, &#x27;interfaces&#x27;: None, &#x27;ssl_private_key&#x27;: &#x27;&#x27;, &#x27;gae&#x27;: None, &#x27;password&#x27;: &#x27;&lt;ask&gt;&#x27;, &#x27;request_queue_size&#x27;: 5, &#x27;ssl_certificate&#x27;: &#x27;&#x27;, &#x27;cronjob&#x27;: False, &#x27;numthreads&#x27;: None, &#x27;quiet&#x27;: False, &#x27;import_models&#x27;: False, &#x27;timeout&#x27;: 10, &#x27;plain&#x27;: False, &#x27;nobanner&#x27;: False}&gt;</div></td></tr><tr><td style="font-weight:bold;vertical-align:top;">db_sessions</td><td style="vertical-align:top;">:</td><td><div>set([])</div></td></tr><tr><td style="font-weight:bold;vertical-align:top;">debugging</td><td style="vertical-align:top;">:</td><td><div>False</div></td></tr><tr><td style="font-weight:bold;vertical-align:top;">gluon_parent</td><td style="vertical-align:top;">:</td><td><div>C:\\Users\\Jessica do Amaral\\Documents\\Web2py\\web2py</div></td></tr><tr><td style="font-weight:bold;vertical-align:top;">is_jython</td><td style="vertical-align:top;">:</td><td><div>False</div></td></tr><tr><td style="font-weight:bold;vertical-align:top;">is_pypy</td><td style="vertical-align:top;">:</td><td><div>False</div></td></tr><tr><td style="font-weight:bold;vertical-align:top;">is_source</td><td style="vertical-align:top;">:</td><td><div>False</div></td></tr><tr><td style="font-weight:bold;vertical-align:top;">local_hosts</td><td style="vertical-align:top;">:</td><td><div><table><tr><td><div>2001:0:9d38:6abd:c40:24a7:f5ff:95bb</div></td></tr><tr><td><div>10.0.106.68</div></td></tr><tr><td><div>jessica</div></td></tr><tr><td><div>fe80::4d6c:50ca:c43f:41f9%4</div></td></tr><tr><td><div>::ffff:127.0.0.1</div></td></tr><tr><td><div>::1</div></td></tr><tr><td><div>127.0.0.1</div></td></tr><tr><td><div>jessica.wll-inatel.inatel.br</div></td></tr><tr><td><div>fe80::c40:24a7:f5ff:95bb%7</div></td></tr></table></div></td></tr><tr><td style="font-weight:bold;vertical-align:top;">web2py_version</td><td style="vertical-align:top;">:</td><td><div>2.12.3-stable+timestamp.2015.08.19.00.18.03</div></td></tr></table></div></td></tr><tr><td style="font-weight:bold;vertical-align:top;">is_https</td><td style="vertical-align:top;">:</td><td><div>False</div></td></tr><tr><td style="font-weight:bold;vertical-align:top;">is_local</td><td style="vertical-align:top;">:</td><td><div>True</div></td></tr><tr><td style="font-weight:bold;vertical-align:top;">is_restful</td><td style="vertical-align:top;">:</td><td><div>False</div></td></tr><tr><td style="font-weight:bold;vertical-align:top;">is_sheduler</td><td style="vertical-align:top;">:</td><td><div>None</div></td></tr><tr><td style="font-weight:bold;vertical-align:top;">is_shell</td><td style="vertical-align:top;">:</td><td><div>None</div></td></tr><tr><td style="font-weight:bold;vertical-align:top;">now</td><td style="vertical-align:top;">:</td><td><div>datetime.datetime(2015, 10, 10, 14, 24, 14, 770000)</div></td></tr><tr><td style="font-weight:bold;vertical-align:top;">raw_args</td><td style="vertical-align:top;">:</td><td><div></div></td></tr><tr><td style="font-weight:bold;vertical-align:top;">raw_extension</td><td style="vertical-align:top;">:</td><td><div>None</div></td></tr><tr><td style="font-weight:bold;vertical-align:top;">url</td><td style="vertical-align:top;">:</td><td><div>/monitorar/default/portal</div></td></tr><tr><td style="font-weight:bold;vertical-align:top;">utcnow</td><td style="vertical-align:top;">:</td><td><div>datetime.datetime(2015, 10, 10, 17, 24, 14, 770000)</div></td></tr><tr><td style="font-weight:bold;vertical-align:top;">wsgi</td><td style="vertical-align:top;">:</td><td><div>&lt;gluon.main.LazyWSGI object at 0x03A3FD90&gt;</div></td></tr></table></div>'
tRp70
sS'frames'
p71
(lp72
(dp73
S'file'
p74
S'C:\\Users\\Jessica do Amaral\\Documents\\Web2py\\web2py\\gluon\\restricted.py'
p75
sS'dump'
p76
(dp77
S'code'
p78
S'\'response.write(\\\'<!DOCTYPE html>\\\\r\\\\n<html lang="p...r\\\\n\\\\r\\\\n</body>\\\\r\\\\n\\\\r\\\\n</html>\\\\r\\\\n\\\', escape=False)\''
p79
sS'layer'
p80
S"r'C:\\Users\\Jessica do Amaral\\Documents\\Web2py\\web2py\\applications\\monitorar\\views\\default/portal.html'"
p81
sS'global compile2'
p82
S'<function compile2>'
p83
sS'ccode'
p84
S'undefined'
p85
ssS'lnum'
p86
I226
sS'lines'
p87
(dp88
I224
S'            ccode = code'
p89
sI225
S'        else:'
p90
sI226
S'            ccode = compile2(code, layer)'
p91
sI227
S'        exec ccode in environment'
p92
sI228
S'    except HTTP:'
p93
sI229
S'        raise'
p94
sI230
S'    except RestrictedError:'
p95
sI221
S"    environment['__name__'] = '__restricted__'"
p96
sI222
S'    try:'
p97
sI223
S'        if isinstance(code, types.CodeType):'
p98
ssS'call'
p99
S'(code=\'response.write(\\\'<!DOCTYPE html>\\\\r\\\\n<html lang="p...r\\\\n\\\\r\\\\n</body>\\\\r\\\\n\\\\r\\\\n</html>\\\\r\\\\n\\\', escape=False)\', environment={\'A\': <class \'gluon.html.A\'>, \'ANY_OF\': <class \'gluon.validators.ANY_OF\'>, \'ASSIGNJS\': <function ASSIGNJS>, \'AppConfig\': <function AppConfig>, \'Auth\': <class \'gluon.tools.Auth\'>, \'B\': <class \'gluon.html.B\'>, \'BEAUTIFY\': <class \'gluon.html.BEAUTIFY\'>, \'BODY\': <class \'gluon.html.BODY\'>, \'BR\': <class \'gluon.html.BR\'>, \'BUTTON\': <class \'gluon.html.BUTTON\'>, ...}, layer=r\'C:\\Users\\Jessica do Amaral\\Documents\\Web2py\\web2py\\applications\\monitorar\\views\\default/portal.html\')'
p100
sS'func'
p101
S'restricted'
p102
sa(dp103
g74
S'C:\\Users\\Jessica do Amaral\\Documents\\Web2py\\web2py\\gluon\\restricted.py'
p104
sg76
(dp105
S'builtincompile'
p106
S'<built-in function compile>'
p107
sS'code'
p108
S'\'response.write(\\\'<!DOCTYPE html>\\\\r\\\\n<html lang="p...r\\\\n\\\\r\\\\n</body>\\\\r\\\\n\\\\r\\\\n</html>\\\\r\\\\n\\\', escape=False)\''
p109
sS'code.rstrip'
p110
S'<built-in method rstrip of str object>'
p111
sS').replace'
p112
g85
sS'layer'
p113
S"r'C:\\Users\\Jessica do Amaral\\Documents\\Web2py\\web2py\\applications\\monitorar\\views\\default/portal.html'"
p114
ssg86
I209
sg87
(dp115
I204
S'def compile2(code, layer):'
p116
sI205
S'    """'
p117
sI206
S"    The ``+'\\\\n'`` is necessary else compile fails when code ends in a comment."
p118
sI207
S'    """'
p119
sI208
S''
sI209
S"    return compile(code.rstrip().replace('\\r\\n', '\\n') + '\\n', layer, 'exec')"
p120
sI210
S''
sI211
S''
sI212
S"def restricted(code, environment=None, layer='Unknown'):"
p121
sI213
S'    """'
p122
ssg99
S'(code=\'response.write(\\\'<!DOCTYPE html>\\\\r\\\\n<html lang="p...r\\\\n\\\\r\\\\n</body>\\\\r\\\\n\\\\r\\\\n</html>\\\\r\\\\n\\\', escape=False)\', layer=r\'C:\\Users\\Jessica do Amaral\\Documents\\Web2py\\web2py\\applications\\monitorar\\views\\default/portal.html\')'
p123
sg101
S'compile2'
p124
sasS'pyver'
p125
S'Python 2.7.9: C:\\Users\\Jessica do Amaral\\Documents\\Web2py\\web2py\\web2py.exe (prefix: C:\\Python27)'
p126
sS'session'
p127
g69
(S'sq\x08\x00\x00<div><table><tr><td style="font-weight:bold;vertical-align:top;">auth</td><td style="vertical-align:top;">:</td><td><div><table><tr><td style="font-weight:bold;vertical-align:top;">expiration</td><td style="vertical-align:top;">:</td><td><div>3600</div></td></tr><tr><td style="font-weight:bold;vertical-align:top;">hmac_key</td><td style="vertical-align:top;">:</td><td><div>03c426f1-18c4-4602-a928-ae8d35d17e3a</div></td></tr><tr><td style="font-weight:bold;vertical-align:top;">last_visit</td><td style="vertical-align:top;">:</td><td><div>datetime.datetime(2015, 10, 10, 14, 22, 39, 892000)</div></td></tr><tr><td style="font-weight:bold;vertical-align:top;">user</td><td style="vertical-align:top;">:</td><td><div><table><tr><td style="font-weight:bold;vertical-align:top;">email</td><td style="vertical-align:top;">:</td><td><div>jessica_andrade@gec.inatel.br</div></td></tr><tr><td style="font-weight:bold;vertical-align:top;">first_name</td><td style="vertical-align:top;">:</td><td><div>J\xc3\xa9ssica</div></td></tr><tr><td style="font-weight:bold;vertical-align:top;">id</td><td style="vertical-align:top;">:</td><td><div>2L</div></td></tr><tr><td style="font-weight:bold;vertical-align:top;">last_name</td><td style="vertical-align:top;">:</td><td><div>Andrade</div></td></tr><tr><td style="font-weight:bold;vertical-align:top;">registration_id</td><td style="vertical-align:top;">:</td><td><div></div></td></tr><tr><td style="font-weight:bold;vertical-align:top;">registration_key</td><td style="vertical-align:top;">:</td><td><div></div></td></tr><tr><td style="font-weight:bold;vertical-align:top;">reset_password_key</td><td style="vertical-align:top;">:</td><td><div></div></td></tr></table></div></td></tr><tr><td style="font-weight:bold;vertical-align:top;">user_groups</td><td style="vertical-align:top;">:</td><td><div><table><tr><td style="font-weight:bold;vertical-align:top;">2</td><td style="vertical-align:top;">:</td><td><div>user_2</div></td></tr></table></div></td></tr></table></div></td></tr><tr><td style="font-weight:bold;vertical-align:top;">flash</td><td style="vertical-align:top;">:</td><td><div>None</div></td></tr></table></div>'
tRp128
sS'etype'
p129
S"<type 'exceptions.SyntaxError'>"
p130
sS'date'
p131
S'Sat Oct 10 14:24:14 2015'
p132
sS'response'
p133
g69
(S'sL@\x00\x00<div><table><tr><td style="font-weight:bold;vertical-align:top;">body</td><td style="vertical-align:top;">:</td><td><div>&lt;cStringIO.StringO object at 0x03A3F6C0&gt;</div></td></tr><tr><td style="font-weight:bold;vertical-align:top;">cookies</td><td style="vertical-align:top;">:</td><td><div><table><tr><td style="font-weight:bold;vertical-align:top;">session_id_monitorar</td><td style="vertical-align:top;">:</td><td><div>127.0.0.1-19336f25-3ee4-4416-9755-b785f219202c<table><tr><td style="font-weight:bold;vertical-align:top;">comment</td><td style="vertical-align:top;">:</td><td><div></div></td></tr><tr><td style="font-weight:bold;vertical-align:top;">domain</td><td style="vertical-align:top;">:</td><td><div></div></td></tr><tr><td style="font-weight:bold;vertical-align:top;">expires</td><td style="vertical-align:top;">:</td><td><div></div></td></tr><tr><td style="font-weight:bold;vertical-align:top;">httponly</td><td style="vertical-align:top;">:</td><td><div></div></td></tr><tr><td style="font-weight:bold;vertical-align:top;">max-age</td><td style="vertical-align:top;">:</td><td><div></div></td></tr><tr><td style="font-weight:bold;vertical-align:top;">path</td><td style="vertical-align:top;">:</td><td><div>/</div></td></tr><tr><td style="font-weight:bold;vertical-align:top;">secure</td><td style="vertical-align:top;">:</td><td><div></div></td></tr><tr><td style="font-weight:bold;vertical-align:top;">version</td><td style="vertical-align:top;">:</td><td><div></div></td></tr></table></div></td></tr></table></div></td></tr><tr><td style="font-weight:bold;vertical-align:top;">delimiters</td><td style="vertical-align:top;">:</td><td><div><table><tr><td><div>{{</div></td></tr><tr><td><div>}}</div></td></tr></table></div></td></tr><tr><td style="font-weight:bold;vertical-align:top;">files</td><td style="vertical-align:top;">:</td><td><div><table></table></div></td></tr><tr><td style="font-weight:bold;vertical-align:top;">flash</td><td style="vertical-align:top;">:</td><td><div></div></td></tr><tr><td style="font-weight:bold;vertical-align:top;">form_label_separator</td><td style="vertical-align:top;">:</td><td><div></div></td></tr><tr><td style="font-weight:bold;vertical-align:top;">formstyle</td><td style="vertical-align:top;">:</td><td><div>bootstrap3_inline</div></td></tr><tr><td style="font-weight:bold;vertical-align:top;">generic_patterns</td><td style="vertical-align:top;">:</td><td><div><table><tr><td><div>*</div></td></tr></table></div></td></tr><tr><td style="font-weight:bold;vertical-align:top;">google_analytics_id</td><td style="vertical-align:top;">:</td><td><div>None</div></td></tr><tr><td style="font-weight:bold;vertical-align:top;">headers</td><td style="vertical-align:top;">:</td><td><div><table><tr><td style="font-weight:bold;vertical-align:top;">X-Powered-By</td><td style="vertical-align:top;">:</td><td><div>web2py</div></td></tr></table></div></td></tr><tr><td style="font-weight:bold;vertical-align:top;">logo</td><td style="vertical-align:top;">:</td><td><div><a class="navbar-brand" href="http://www.web2py.com/" id="web2py-logo"><b>web<span>2</span>py</b>&trade;&nbsp;</a></div></td></tr><tr><td style="font-weight:bold;vertical-align:top;">menu</td><td style="vertical-align:top;">:</td><td><div><table><tr><td><div><table><tr><td><div>Principal</div></td></tr><tr><td><div>False</div></td></tr><tr><td><div>/monitorar/default/index</div></td></tr><tr><td><div><table></table></div></td></tr></table></div></td></tr><tr><td><div><table><tr><td><div>Meus sites</div></td></tr><tr><td><div>False</div></td></tr><tr><td><div>/admin/default/site</div></td></tr></table></div></td></tr><tr><td><div><table><tr><td><div>Esta aplica\xc3\xa7\xc3\xa3o</div></td></tr><tr><td><div>False</div></td></tr><tr><td><div>#</div></td></tr><tr><td><div><table><tr><td><div><table><tr><td><div>Design</div></td></tr><tr><td><div>False</div></td></tr><tr><td><div>/admin/default/design/monitorar</div></td></tr></table></div></td></tr><tr><td><div><li class="divider"></li></div></td></tr><tr><td><div><table><tr><td><div>Controlador</div></td></tr><tr><td><div>False</div></td></tr><tr><td><div>/admin/default/edit/monitorar/controllers/default.py</div></td></tr></table></div></td></tr><tr><td><div><table><tr><td><div>Visualiza\xc3\xa7\xc3\xa3o</div></td></tr><tr><td><div>False</div></td></tr><tr><td><div>/admin/default/edit/monitorar/views/default/portal.html</div></td></tr></table></div></td></tr><tr><td><div><table><tr><td><div>Modelo BD</div></td></tr><tr><td><div>False</div></td></tr><tr><td><div>/admin/default/edit/monitorar/models/db.py</div></td></tr></table></div></td></tr><tr><td><div><table><tr><td><div>Modelo de Menu</div></td></tr><tr><td><div>False</div></td></tr><tr><td><div>/admin/default/edit/monitorar/models/menu.py</div></td></tr></table></div></td></tr><tr><td><div><table><tr><td><div>Config.ini</div></td></tr><tr><td><div>False</div></td></tr><tr><td><div>/admin/default/edit/monitorar/private/appconfig.ini</div></td></tr></table></div></td></tr><tr><td><div><table><tr><td><div>Layout</div></td></tr><tr><td><div>False</div></td></tr><tr><td><div>/admin/default/edit/monitorar/views/layout.html</div></td></tr></table></div></td></tr><tr><td><div><table><tr><td><div>Folha de estilo</div></td></tr><tr><td><div>False</div></td></tr><tr><td><div>/admin/default/edit/monitorar/static/css/web2py-bootstrap3.css</div></td></tr></table></div></td></tr><tr><td><div><table><tr><td><div>banco de dados</div></td></tr><tr><td><div>False</div></td></tr><tr><td><div>/monitorar/appadmin/index</div></td></tr></table></div></td></tr><tr><td><div><table><tr><td><div>Erros</div></td></tr><tr><td><div>False</div></td></tr><tr><td><div>/admin/default/errors/monitorar</div></td></tr></table></div></td></tr><tr><td><div><table><tr><td><div>Sobre</div></td></tr><tr><td><div>False</div></td></tr><tr><td><div>/admin/default/about/monitorar</div></td></tr></table></div></td></tr></table></div></td></tr></table></div></td></tr><tr><td><div><table><tr><td><div>web2py.com</div></td></tr><tr><td><div>False</div></td></tr><tr><td><div>#</div></td></tr><tr><td><div><table><tr><td><div><table><tr><td><div>Download</div></td></tr><tr><td><div>False</div></td></tr><tr><td><div>http://www.web2py.com/examples/default/download</div></td></tr></table></div></td></tr><tr><td><div><table><tr><td><div>Suporte</div></td></tr><tr><td><div>False</div></td></tr><tr><td><div>http://www.web2py.com/examples/default/support</div></td></tr></table></div></td></tr><tr><td><div><table><tr><td><div>Demo</div></td></tr><tr><td><div>False</div></td></tr><tr><td><div>http://web2py.com/demo_admin</div></td></tr></table></div></td></tr><tr><td><div><table><tr><td><div>Exemplos r\xc3\xa1pidos</div></td></tr><tr><td><div>False</div></td></tr><tr><td><div>http://web2py.com/examples/default/examples</div></td></tr></table></div></td></tr><tr><td><div><table><tr><td><div>Perguntas frequentes</div></td></tr><tr><td><div>False</div></td></tr><tr><td><div>http://web2py.com/AlterEgo</div></td></tr></table></div></td></tr><tr><td><div><table><tr><td><div>V\xc3\xaddeos</div></td></tr><tr><td><div>False</div></td></tr><tr><td><div>http://www.web2py.com/examples/default/videos/</div></td></tr></table></div></td></tr><tr><td><div><table><tr><td><div>Aplica\xc3\xa7\xc3\xb5es gratuitas</div></td></tr><tr><td><div>False</div></td></tr><tr><td><div>http://web2py.com/appliances</div></td></tr></table></div></td></tr><tr><td><div><table><tr><td><div>Plugins</div></td></tr><tr><td><div>False</div></td></tr><tr><td><div>http://web2py.com/plugins</div></td></tr></table></div></td></tr><tr><td><div><table><tr><td><div>Receitas</div></td></tr><tr><td><div>False</div></td></tr><tr><td><div>http://web2pyslices.com/</div></td></tr></table></div></td></tr></table></div></td></tr></table></div></td></tr><tr><td><div><table><tr><td><div>Documenta\xc3\xa7\xc3\xa3o</div></td></tr><tr><td><div>False</div></td></tr><tr><td><div>#</div></td></tr><tr><td><div><table><tr><td><div><table><tr><td><div>Online book</div></td></tr><tr><td><div>False</div></td></tr><tr><td><div>http://www.web2py.com/book</div></td></tr></table></div></td></tr><tr><td><div><li class="divider"></li></div></td></tr><tr><td><div><table><tr><td><div>Pref\xc3\xa1cio</div></td></tr><tr><td><div>False</div></td></tr><tr><td><div>http://www.web2py.com/book/default/chapter/00</div></td></tr></table></div></td></tr><tr><td><div><table><tr><td><div>Introdu\xc3\xa7\xc3\xa3o</div></td></tr><tr><td><div>False</div></td></tr><tr><td><div>http://www.web2py.com/book/default/chapter/01</div></td></tr></table></div></td></tr><tr><td><div><table><tr><td><div>Python</div></td></tr><tr><td><div>False</div></td></tr><tr><td><div>http://www.web2py.com/book/default/chapter/02</div></td></tr></table></div></td></tr><tr><td><div><table><tr><td><div>Vis\xc3\xa3o Geral</div></td></tr><tr><td><div>False</div></td></tr><tr><td><div>http://www.web2py.com/book/default/chapter/03</div></td></tr></table></div></td></tr><tr><td><div><table><tr><td><div>The Core</div></td></tr><tr><td><div>False</div></td></tr><tr><td><div>http://www.web2py.com/book/default/chapter/04</div></td></tr></table></div></td></tr><tr><td><div><table><tr><td><div>As views</div></td></tr><tr><td><div>False</div></td></tr><tr><td><div>http://www.web2py.com/book/default/chapter/05</div></td></tr></table></div></td></tr><tr><td><div><table><tr><td><div>banco de dados</div></td></tr><tr><td><div>False</div></td></tr><tr><td><div>http://www.web2py.com/book/default/chapter/06</div></td></tr></table></div></td></tr><tr><td><div><table><tr><td><div>Formul\xc3\xa1rios e Validadores</div></td></tr><tr><td><div>False</div></td></tr><tr><td><div>http://www.web2py.com/book/default/chapter/07</div></td></tr></table></div></td></tr><tr><td><div><table><tr><td><div>Email e SMS</div></td></tr><tr><td><div>False</div></td></tr><tr><td><div>http://www.web2py.com/book/default/chapter/08</div></td></tr></table></div></td></tr><tr><td><div><table><tr><td><div>Controle de Acesso</div></td></tr><tr><td><div>False</div></td></tr><tr><td><div>http://www.web2py.com/book/default/chapter/09</div></td></tr></table></div></td></tr><tr><td><div><table><tr><td><div>Servi\xc3\xa7o</div></td></tr><tr><td><div>False</div></td></tr><tr><td><div>http://www.web2py.com/book/default/chapter/10</div></td></tr></table></div></td></tr><tr><td><div><table><tr><td><div>Receitas de Ajax</div></td></tr><tr><td><div>False</div></td></tr><tr><td><div>http://www.web2py.com/book/default/chapter/11</div></td></tr></table></div></td></tr><tr><td><div><table><tr><td><div>Componentes e Plugins</div></td></tr><tr><td><div>False</div></td></tr><tr><td><div>http://www.web2py.com/book/default/chapter/12</div></td></tr></table></div></td></tr><tr><td><div><table><tr><td><div>Receitas de deploy</div></td></tr><tr><td><div>False</div></td></tr><tr><td><div>http://www.web2py.com/book/default/chapter/13</div></td></tr></table></div></td></tr><tr><td><div><table><tr><td><div>Outras Receitas</div></td></tr><tr><td><div>False</div></td></tr><tr><td><div>http://www.web2py.com/book/default/chapter/14</div></td></tr></table></div></td></tr><tr><td><div><table><tr><td><div>Helping web2py</div></td></tr><tr><td><div>False</div></td></tr><tr><td><div>http://www.web2py.com/book/default/chapter/15</div></td></tr></table></div></td></tr><tr><td><div><table><tr><td><div>Buy web2py\'s book</div></td></tr><tr><td><div>False</div></td></tr><tr><td><div>http://stores.lulu.com/web2py</div></td></tr></table></div></td></tr></table></div></td></tr></table></div></td></tr><tr><td><div><table><tr><td><div>Comunidade</div></td></tr><tr><td><div>False</div></td></tr><tr><td><div>None</div></td></tr><tr><td><div><table><tr><td><div><table><tr><td><div>Grupos</div></td></tr><tr><td><div>False</div></td></tr><tr><td><div>http://www.web2py.com/examples/default/usergroups</div></td></tr></table></div></td></tr><tr><td><div><table><tr><td><div>Twitter</div></td></tr><tr><td><div>False</div></td></tr><tr><td><div>http://twitter.com/web2py</div></td></tr></table></div></td></tr><tr><td><div><table><tr><td><div>Chat ao vivo</div></td></tr><tr><td><div>False</div></td></tr><tr><td><div>http://webchat.freenode.net/?channels=web2py</div></td></tr></table></div></td></tr></table></div></td></tr></table></div></td></tr></table></div></td></tr><tr><td style="font-weight:bold;vertical-align:top;">meta</td><td style="vertical-align:top;">:</td><td><div><table><tr><td style="font-weight:bold;vertical-align:top;">author</td><td style="vertical-align:top;">:</td><td><div>Your Name &lt;you@example.com&gt;</div></td></tr><tr><td style="font-weight:bold;vertical-align:top;">description</td><td style="vertical-align:top;">:</td><td><div>a cool new app</div></td></tr><tr><td style="font-weight:bold;vertical-align:top;">generator</td><td style="vertical-align:top;">:</td><td><div>Web2py Web Framework</div></td></tr><tr><td style="font-weight:bold;vertical-align:top;">keywords</td><td style="vertical-align:top;">:</td><td><div>web2py, python, framework</div></td></tr></table></div></td></tr><tr><td style="font-weight:bold;vertical-align:top;">models_to_run</td><td style="vertical-align:top;">:</td><td><div><table><tr><td><div>^\\w+\\.py$</div></td></tr><tr><td><div>^default/\\w+\\.py$</div></td></tr><tr><td><div>^default/portal/\\w+\\.py$</div></td></tr></table></div></td></tr><tr><td style="font-weight:bold;vertical-align:top;">postprocessing</td><td style="vertical-align:top;">:</td><td><div><table></table></div></td></tr><tr><td style="font-weight:bold;vertical-align:top;">session_client</td><td style="vertical-align:top;">:</td><td><div>127.0.0.1</div></td></tr><tr><td style="font-weight:bold;vertical-align:top;">session_cookie_compression_level</td><td style="vertical-align:top;">:</td><td><div>None</div></td></tr><tr><td style="font-weight:bold;vertical-align:top;">session_cookie_expires</td><td style="vertical-align:top;">:</td><td><div>None</div></td></tr><tr><td style="font-weight:bold;vertical-align:top;">session_cookie_key</td><td style="vertical-align:top;">:</td><td><div>None</div></td></tr><tr><td style="font-weight:bold;vertical-align:top;">session_data_name</td><td style="vertical-align:top;">:</td><td><div>session_data_monitorar</div></td></tr><tr><td style="font-weight:bold;vertical-align:top;">session_file</td><td style="vertical-align:top;">:</td><td><div>&lt;open file &#x27;C:\\\\Users\\\\Jessica do Amaral\\\\Documents\\\\Web2py\\\\web2py\\\\applications\\\\monitorar\\\\sessions\\\\1e3\\\\18d\\\\127.0.0.1-19336f25-3ee4-4416-9755-b785f219202c&#x27;, mode &#x27;rb+&#x27; at 0x03527338&gt;</div></td></tr><tr><td style="font-weight:bold;vertical-align:top;">session_filename</td><td style="vertical-align:top;">:</td><td><div>C:\\Users\\Jessica do Amaral\\Documents\\Web2py\\web2py\\applications\\monitorar\\sessions\\127.0.0.1-19336f25-3ee4-4416-9755-b785f219202c</div></td></tr><tr><td style="font-weight:bold;vertical-align:top;">session_hash</td><td style="vertical-align:top;">:</td><td><div>08a4e25ba8d973946b5ad67fd7c3e11c</div></td></tr><tr><td style="font-weight:bold;vertical-align:top;">session_id</td><td style="vertical-align:top;">:</td><td><div>127.0.0.1-19336f25-3ee4-4416-9755-b785f219202c</div></td></tr><tr><td style="font-weight:bold;vertical-align:top;">session_id_name</td><td style="vertical-align:top;">:</td><td><div>session_id_monitorar</div></td></tr><tr><td style="font-weight:bold;vertical-align:top;">session_locked</td><td style="vertical-align:top;">:</td><td><div>True</div></td></tr><tr><td style="font-weight:bold;vertical-align:top;">session_masterapp</td><td style="vertical-align:top;">:</td><td><div>monitorar</div></td></tr><tr><td style="font-weight:bold;vertical-align:top;">session_new</td><td style="vertical-align:top;">:</td><td><div>False</div></td></tr><tr><td style="font-weight:bold;vertical-align:top;">session_storage_type</td><td style="vertical-align:top;">:</td><td><div>file</div></td></tr><tr><td style="font-weight:bold;vertical-align:top;">status</td><td style="vertical-align:top;">:</td><td><div>200</div></td></tr><tr><td style="font-weight:bold;vertical-align:top;">subtitle</td><td style="vertical-align:top;">:</td><td><div></div></td></tr><tr><td style="font-weight:bold;vertical-align:top;">title</td><td style="vertical-align:top;">:</td><td><div>Monitorar</div></td></tr><tr><td style="font-weight:bold;vertical-align:top;">view</td><td style="vertical-align:top;">:</td><td><div>default/portal.html</div></td></tr></table></div>'
tRp134
sS'locals'
p135
(dp136
g4
S"r'C:\\Users\\Jessica do Amaral\\Documents\\Web2py\\web2py\\applications\\monitorar\\views\\default/portal.html'"
p137
sg6
S'\'response.write(\\\'<!DOCTYPE html>\\\\r\\\\n<html lang="p...r\\\\n\\\\r\\\\n</body>\\\\r\\\\n\\\\r\\\\n</html>\\\\r\\\\n\\\', escape=False)\''
p138
sssS'traceback'
p139
S'Traceback (most recent call last):\n  File "C:\\Users\\Jessica do Amaral\\Documents\\Web2py\\web2py\\gluon\\restricted.py", line 226, in restricted\n    ccode = compile2(code, layer)\n  File "C:\\Users\\Jessica do Amaral\\Documents\\Web2py\\web2py\\gluon\\restricted.py", line 209, in compile2\n    return compile(code.rstrip().replace(\'\\r\\n\', \'\\n\') + \'\\n\', layer, \'exec\')\n  File "C:\\Users\\Jessica do Amaral\\Documents\\Web2py\\web2py\\applications\\monitorar\\views\\default/portal.html", line 16\n    response.write(URL(c=\'default\', f=\'portal\',args=[\'logout\'])))\n                                                                ^\nSyntaxError: invalid syntax\n'
p140
s.